Archive member included because of file (symbol)

c:/program files (x86)/codesourcery/sourcery g++ lite/bin/../lib/gcc/arm-none-eabi/4.4.1/../../../../arm-none-eabi/lib/thumb2\libc.a(lib_a-errno.o)
                              Utils\syscalls-stubs.o (__errno)
c:/program files (x86)/codesourcery/sourcery g++ lite/bin/../lib/gcc/arm-none-eabi/4.4.1/../../../../arm-none-eabi/lib/thumb2\libc.a(lib_a-impure.o)
                              c:/program files (x86)/codesourcery/sourcery g++ lite/bin/../lib/gcc/arm-none-eabi/4.4.1/../../../../arm-none-eabi/lib/thumb2\libc.a(lib_a-errno.o) (_impure_ptr)
c:/program files (x86)/codesourcery/sourcery g++ lite/bin/../lib/gcc/arm-none-eabi/4.4.1/../../../../arm-none-eabi/lib/thumb2\libc.a(lib_a-init.o)
                              startup\startup_stm32f4xx.o (__libc_init_array)
c:/program files (x86)/codesourcery/sourcery g++ lite/bin/../lib/gcc/arm-none-eabi/4.4.1/../../../../arm-none-eabi/lib/thumb2\libc.a(lib_a-memcmp.o)
                              FreeRTOS\tasks.o (memcmp)
c:/program files (x86)/codesourcery/sourcery g++ lite/bin/../lib/gcc/arm-none-eabi/4.4.1/../../../../arm-none-eabi/lib/thumb2\libc.a(lib_a-memcpy.o)
                              User\main.o (memcpy)
c:/program files (x86)/codesourcery/sourcery g++ lite/bin/../lib/gcc/arm-none-eabi/4.4.1/../../../../arm-none-eabi/lib/thumb2\libc.a(lib_a-memset.o)
                              User\main.o (memset)
c:/program files (x86)/codesourcery/sourcery g++ lite/bin/../lib/gcc/arm-none-eabi/4.4.1/../../../../arm-none-eabi/lib/thumb2\libc.a(lib_a-sprintf.o)
                              User\main.o (sprintf)
c:/program files (x86)/codesourcery/sourcery g++ lite/bin/../lib/gcc/arm-none-eabi/4.4.1/../../../../arm-none-eabi/lib/thumb2\libc.a(lib_a-strcat.o)
                              FreeRTOS\tasks.o (strcat)
c:/program files (x86)/codesourcery/sourcery g++ lite/bin/../lib/gcc/arm-none-eabi/4.4.1/../../../../arm-none-eabi/lib/thumb2\libc.a(lib_a-strcpy.o)
                              User\main.o (strcpy)
c:/program files (x86)/codesourcery/sourcery g++ lite/bin/../lib/gcc/arm-none-eabi/4.4.1/../../../../arm-none-eabi/lib/thumb2\libc.a(lib_a-strlen.o)
                              Utils\itoa.o (strlen)
c:/program files (x86)/codesourcery/sourcery g++ lite/bin/../lib/gcc/arm-none-eabi/4.4.1/../../../../arm-none-eabi/lib/thumb2\libc.a(lib_a-strncpy.o)
                              FreeRTOS\tasks.o (strncpy)
c:/program files (x86)/codesourcery/sourcery g++ lite/bin/../lib/gcc/arm-none-eabi/4.4.1/../../../../arm-none-eabi/lib/thumb2\libc.a(lib_a-svfprintf.o)
                              c:/program files (x86)/codesourcery/sourcery g++ lite/bin/../lib/gcc/arm-none-eabi/4.4.1/../../../../arm-none-eabi/lib/thumb2\libc.a(lib_a-sprintf.o) (_svfprintf_r)
c:/program files (x86)/codesourcery/sourcery g++ lite/bin/../lib/gcc/arm-none-eabi/4.4.1/../../../../arm-none-eabi/lib/thumb2\libc.a(lib_a-dtoa.o)
                              c:/program files (x86)/codesourcery/sourcery g++ lite/bin/../lib/gcc/arm-none-eabi/4.4.1/../../../../arm-none-eabi/lib/thumb2\libc.a(lib_a-svfprintf.o) (_dtoa_r)
c:/program files (x86)/codesourcery/sourcery g++ lite/bin/../lib/gcc/arm-none-eabi/4.4.1/../../../../arm-none-eabi/lib/thumb2\libc.a(lib_a-freer.o)
                              c:/program files (x86)/codesourcery/sourcery g++ lite/bin/../lib/gcc/arm-none-eabi/4.4.1/../../../../arm-none-eabi/lib/thumb2\libc.a(lib_a-svfprintf.o) (_free_r)
c:/program files (x86)/codesourcery/sourcery g++ lite/bin/../lib/gcc/arm-none-eabi/4.4.1/../../../../arm-none-eabi/lib/thumb2\libc.a(lib_a-locale.o)
                              c:/program files (x86)/codesourcery/sourcery g++ lite/bin/../lib/gcc/arm-none-eabi/4.4.1/../../../../arm-none-eabi/lib/thumb2\libc.a(lib_a-svfprintf.o) (_localeconv_r)
c:/program files (x86)/codesourcery/sourcery g++ lite/bin/../lib/gcc/arm-none-eabi/4.4.1/../../../../arm-none-eabi/lib/thumb2\libc.a(lib_a-malloc.o)
                              c:/program files (x86)/codesourcery/sourcery g++ lite/bin/../lib/gcc/arm-none-eabi/4.4.1/../../../../arm-none-eabi/lib/thumb2\libc.a(lib_a-dtoa.o) (malloc)
c:/program files (x86)/codesourcery/sourcery g++ lite/bin/../lib/gcc/arm-none-eabi/4.4.1/../../../../arm-none-eabi/lib/thumb2\libc.a(lib_a-mallocr.o)
                              c:/program files (x86)/codesourcery/sourcery g++ lite/bin/../lib/gcc/arm-none-eabi/4.4.1/../../../../arm-none-eabi/lib/thumb2\libc.a(lib_a-svfprintf.o) (_malloc_r)
c:/program files (x86)/codesourcery/sourcery g++ lite/bin/../lib/gcc/arm-none-eabi/4.4.1/../../../../arm-none-eabi/lib/thumb2\libc.a(lib_a-memchr.o)
                              c:/program files (x86)/codesourcery/sourcery g++ lite/bin/../lib/gcc/arm-none-eabi/4.4.1/../../../../arm-none-eabi/lib/thumb2\libc.a(lib_a-svfprintf.o) (memchr)
c:/program files (x86)/codesourcery/sourcery g++ lite/bin/../lib/gcc/arm-none-eabi/4.4.1/../../../../arm-none-eabi/lib/thumb2\libc.a(lib_a-memmove.o)
                              c:/program files (x86)/codesourcery/sourcery g++ lite/bin/../lib/gcc/arm-none-eabi/4.4.1/../../../../arm-none-eabi/lib/thumb2\libc.a(lib_a-svfprintf.o) (memmove)
c:/program files (x86)/codesourcery/sourcery g++ lite/bin/../lib/gcc/arm-none-eabi/4.4.1/../../../../arm-none-eabi/lib/thumb2\libc.a(lib_a-mlock.o)
                              c:/program files (x86)/codesourcery/sourcery g++ lite/bin/../lib/gcc/arm-none-eabi/4.4.1/../../../../arm-none-eabi/lib/thumb2\libc.a(lib_a-freer.o) (__malloc_lock)
c:/program files (x86)/codesourcery/sourcery g++ lite/bin/../lib/gcc/arm-none-eabi/4.4.1/../../../../arm-none-eabi/lib/thumb2\libc.a(lib_a-mprec.o)
                              c:/program files (x86)/codesourcery/sourcery g++ lite/bin/../lib/gcc/arm-none-eabi/4.4.1/../../../../arm-none-eabi/lib/thumb2\libc.a(lib_a-dtoa.o) (__hi0bits)
c:/program files (x86)/codesourcery/sourcery g++ lite/bin/../lib/gcc/arm-none-eabi/4.4.1/../../../../arm-none-eabi/lib/thumb2\libc.a(lib_a-reallocr.o)
                              c:/program files (x86)/codesourcery/sourcery g++ lite/bin/../lib/gcc/arm-none-eabi/4.4.1/../../../../arm-none-eabi/lib/thumb2\libc.a(lib_a-svfprintf.o) (_realloc_r)
c:/program files (x86)/codesourcery/sourcery g++ lite/bin/../lib/gcc/arm-none-eabi/4.4.1/../../../../arm-none-eabi/lib/thumb2\libc.a(lib_a-s_isinfd.o)
                              c:/program files (x86)/codesourcery/sourcery g++ lite/bin/../lib/gcc/arm-none-eabi/4.4.1/../../../../arm-none-eabi/lib/thumb2\libc.a(lib_a-svfprintf.o) (__isinfd)
c:/program files (x86)/codesourcery/sourcery g++ lite/bin/../lib/gcc/arm-none-eabi/4.4.1/../../../../arm-none-eabi/lib/thumb2\libc.a(lib_a-s_isnand.o)
                              c:/program files (x86)/codesourcery/sourcery g++ lite/bin/../lib/gcc/arm-none-eabi/4.4.1/../../../../arm-none-eabi/lib/thumb2\libc.a(lib_a-svfprintf.o) (__isnand)
c:/program files (x86)/codesourcery/sourcery g++ lite/bin/../lib/gcc/arm-none-eabi/4.4.1/../../../../arm-none-eabi/lib/thumb2\libc.a(lib_a-sbrkr.o)
                              c:/program files (x86)/codesourcery/sourcery g++ lite/bin/../lib/gcc/arm-none-eabi/4.4.1/../../../../arm-none-eabi/lib/thumb2\libc.a(lib_a-freer.o) (_sbrk_r)
c:/program files (x86)/codesourcery/sourcery g++ lite/bin/../lib/gcc/arm-none-eabi/4.4.1/../../../../arm-none-eabi/lib/thumb2\libc.a(lib_a-strcmp.o)
                              c:/program files (x86)/codesourcery/sourcery g++ lite/bin/../lib/gcc/arm-none-eabi/4.4.1/../../../../arm-none-eabi/lib/thumb2\libc.a(lib_a-locale.o) (strcmp)
c:/program files (x86)/codesourcery/sourcery g++ lite/bin/../lib/gcc/arm-none-eabi/4.4.1/../../../../arm-none-eabi/lib/thumb2\libc.a(lib_a-callocr.o)
                              c:/program files (x86)/codesourcery/sourcery g++ lite/bin/../lib/gcc/arm-none-eabi/4.4.1/../../../../arm-none-eabi/lib/thumb2\libc.a(lib_a-mprec.o) (_calloc_r)
c:/program files (x86)/codesourcery/sourcery g++ lite/bin/../lib/gcc/arm-none-eabi/4.4.1/../../../../arm-none-eabi/lib/thumb2\libc.a(lib_a-reent.o)
                              c:/program files (x86)/codesourcery/sourcery g++ lite/bin/../lib/gcc/arm-none-eabi/4.4.1/../../../../arm-none-eabi/lib/thumb2\libc.a(lib_a-sbrkr.o) (errno)
c:/program files (x86)/codesourcery/sourcery g++ lite/bin/../lib/gcc/arm-none-eabi/4.4.1/thumb2\libgcc.a(_udivsi3.o)
                              c:/program files (x86)/codesourcery/sourcery g++ lite/bin/../lib/gcc/arm-none-eabi/4.4.1/../../../../arm-none-eabi/lib/thumb2\libc.a(lib_a-dtoa.o) (__aeabi_uidiv)
c:/program files (x86)/codesourcery/sourcery g++ lite/bin/../lib/gcc/arm-none-eabi/4.4.1/thumb2\libgcc.a(_dvmd_tls.o)
                              c:/program files (x86)/codesourcery/sourcery g++ lite/bin/../lib/gcc/arm-none-eabi/4.4.1/thumb2\libgcc.a(_udivsi3.o) (__aeabi_idiv0)
c:/program files (x86)/codesourcery/sourcery g++ lite/bin/../lib/gcc/arm-none-eabi/4.4.1/thumb2\libgcc.a(_arm_addsubdf3.o)
                              c:/program files (x86)/codesourcery/sourcery g++ lite/bin/../lib/gcc/arm-none-eabi/4.4.1/../../../../arm-none-eabi/lib/thumb2\libc.a(lib_a-dtoa.o) (__aeabi_dsub)
c:/program files (x86)/codesourcery/sourcery g++ lite/bin/../lib/gcc/arm-none-eabi/4.4.1/thumb2\libgcc.a(_arm_muldivdf3.o)
                              c:/program files (x86)/codesourcery/sourcery g++ lite/bin/../lib/gcc/arm-none-eabi/4.4.1/../../../../arm-none-eabi/lib/thumb2\libc.a(lib_a-dtoa.o) (__aeabi_dmul)
c:/program files (x86)/codesourcery/sourcery g++ lite/bin/../lib/gcc/arm-none-eabi/4.4.1/thumb2\libgcc.a(_arm_cmpdf2.o)
                              c:/program files (x86)/codesourcery/sourcery g++ lite/bin/../lib/gcc/arm-none-eabi/4.4.1/../../../../arm-none-eabi/lib/thumb2\libc.a(lib_a-svfprintf.o) (__aeabi_dcmpeq)
c:/program files (x86)/codesourcery/sourcery g++ lite/bin/../lib/gcc/arm-none-eabi/4.4.1/thumb2\libgcc.a(_arm_fixdfsi.o)
                              c:/program files (x86)/codesourcery/sourcery g++ lite/bin/../lib/gcc/arm-none-eabi/4.4.1/../../../../arm-none-eabi/lib/thumb2\libc.a(lib_a-dtoa.o) (__aeabi_d2iz)
c:/program files (x86)/codesourcery/sourcery g++ lite/bin/../lib/gcc/arm-none-eabi/4.4.1/thumb2\libgcc.a(_arm_addsubsf3.o)
                              User\main.o (__aeabi_i2f)
c:/program files (x86)/codesourcery/sourcery g++ lite/bin/../lib/gcc/arm-none-eabi/4.4.1/thumb2\libgcc.a(_arm_fixsfsi.o)
                              User\main.o (__aeabi_f2iz)
c:/program files (x86)/codesourcery/sourcery g++ lite/bin/../lib/gcc/arm-none-eabi/4.4.1/thumb2\libgcc.a(_aeabi_uldivmod.o)
                              c:/program files (x86)/codesourcery/sourcery g++ lite/bin/../lib/gcc/arm-none-eabi/4.4.1/../../../../arm-none-eabi/lib/thumb2\libc.a(lib_a-svfprintf.o) (__aeabi_uldivmod)
c:/program files (x86)/codesourcery/sourcery g++ lite/bin/../lib/gcc/arm-none-eabi/4.4.1/thumb2\libgcc.a(bpabi.o)
                              c:/program files (x86)/codesourcery/sourcery g++ lite/bin/../lib/gcc/arm-none-eabi/4.4.1/thumb2\libgcc.a(_aeabi_uldivmod.o) (__gnu_uldivmod_helper)
c:/program files (x86)/codesourcery/sourcery g++ lite/bin/../lib/gcc/arm-none-eabi/4.4.1/thumb2\libgcc.a(_divdi3.o)
                              c:/program files (x86)/codesourcery/sourcery g++ lite/bin/../lib/gcc/arm-none-eabi/4.4.1/thumb2\libgcc.a(bpabi.o) (__divdi3)
c:/program files (x86)/codesourcery/sourcery g++ lite/bin/../lib/gcc/arm-none-eabi/4.4.1/thumb2\libgcc.a(_udivdi3.o)
                              c:/program files (x86)/codesourcery/sourcery g++ lite/bin/../lib/gcc/arm-none-eabi/4.4.1/thumb2\libgcc.a(bpabi.o) (__udivdi3)

Allocating common symbols
Common symbol       size              file

faBoilerRelay       0x8               User\main.o
xTimerFunctionHandle
                    0x4               User\main.o
b                   0x1               User\main.o
TIM_TimeBaseStructure
                    0xc               User\main.o
errno               0x4               c:/program files (x86)/codesourcery/sourcery g++ lite/bin/../lib/gcc/arm-none-eabi/4.4.1/../../../../arm-none-eabi/lib/thumb2\libc.a(lib_a-reent.o)
Temperature         0x2               I2C-DS1621\I2C-DS1621.o
pTime_data          0x40              User\main.o
xSystemFunctionHandle
                    0x4               User\main.o
xLCDScreenState     0x1               User\main.o
RFIDTagCode         0x1c              RFID\rfid.o
xQueueRegistry      0x40              FreeRTOS\queue.o
display             0x8               User\main.o
switchTimeFormat    0x1               User\main.o
faBathroomRelay     0x8               User\main.o
halfsec_elapsed     0x2               User\main.o
xScreenSaverHandle  0x4               User\main.o
faGroundRelay       0x8               User\main.o
sec_elapsed         0x2               User\main.o
TIM_OCInitStructure
                    0x14              User\main.o
ScreenSample        0x18              User\main.o
time_temp           0x12              User\main.o
faSensorAlive       0x5               User\main.o
time                0x12              User\main.o
xLCDQueue           0x4               User\main.o
GPIO_InitStructure  0x8               User\main.o
iTemperature        0x14              User\main.o
faResetRelay        0x8               User\main.o
faAtticRelay        0x8               User\main.o
faHeatRelay         0x8               User\main.o
a                   0x1               User\main.o
NVIC_InitStructure  0x4               STM32F4-Discovery\stm32f4_discovery.o
xRefreshHandle      0x4               User\main.o
faSystemConditions  0x8               User\main.o
faFurnaceRelay      0x8               User\main.o
faFloorRelay        0x8               User\main.o

Discarded input sections

 .text          0x00000000        0x0 c:/program files (x86)/codesourcery/sourcery g++ lite/bin/../lib/gcc/arm-none-eabi/4.4.1/thumb2/crti.o
 .data          0x00000000        0x0 c:/program files (x86)/codesourcery/sourcery g++ lite/bin/../lib/gcc/arm-none-eabi/4.4.1/thumb2/crti.o
 .bss           0x00000000        0x0 c:/program files (x86)/codesourcery/sourcery g++ lite/bin/../lib/gcc/arm-none-eabi/4.4.1/thumb2/crti.o
 .data          0x00000000        0x4 c:/program files (x86)/codesourcery/sourcery g++ lite/bin/../lib/gcc/arm-none-eabi/4.4.1/thumb2/crtbegin.o
 .text          0x00000000       0x14 startup\startup_stm32f4xx.o
 .data          0x00000000        0x0 startup\startup_stm32f4xx.o
 .bss           0x00000000        0x0 startup\startup_stm32f4xx.o
 .data          0x00000000        0x0 Utils\timetemp.o
 .bss           0x00000000        0x0 Utils\timetemp.o
 .data          0x00000000        0x0 Utils\syscalls-stubs.o
 .data          0x00000000        0x0 Utils\retarget.o
 .data          0x00000000        0x0 Utils\itoa.o
 .bss           0x00000000        0x0 Utils\itoa.o
 .bss           0x00000000        0x0 User\system_stm32f4xx.o
 .data          0x00000000        0x0 User\stm32f4xx_it.o
 .bss           0x00000000        0x0 User\stm32f4xx_it.o
 .text          0x00000000       0xa0 STM32F4xx_StdPeriph_Driver\src\stm32f4xx_wwdg.o
 .data          0x00000000        0x0 STM32F4xx_StdPeriph_Driver\src\stm32f4xx_wwdg.o
 .bss           0x00000000        0x0 STM32F4xx_StdPeriph_Driver\src\stm32f4xx_wwdg.o
 .data          0x00000000        0x0 STM32F4xx_StdPeriph_Driver\src\stm32f4xx_usart.o
 .bss           0x00000000        0x0 STM32F4xx_StdPeriph_Driver\src\stm32f4xx_usart.o
 .data          0x00000000        0x0 STM32F4xx_StdPeriph_Driver\src\stm32f4xx_tim.o
 .bss           0x00000000        0x0 STM32F4xx_StdPeriph_Driver\src\stm32f4xx_tim.o
 .data          0x00000000        0x0 STM32F4xx_StdPeriph_Driver\src\stm32f4xx_syscfg.o
 .bss           0x00000000        0x0 STM32F4xx_StdPeriph_Driver\src\stm32f4xx_syscfg.o
 .data          0x00000000        0x0 STM32F4xx_StdPeriph_Driver\src\stm32f4xx_spi.o
 .bss           0x00000000        0x0 STM32F4xx_StdPeriph_Driver\src\stm32f4xx_spi.o
 .text          0x00000000      0x22c STM32F4xx_StdPeriph_Driver\src\stm32f4xx_sdio.o
 .data          0x00000000        0x0 STM32F4xx_StdPeriph_Driver\src\stm32f4xx_sdio.o
 .bss           0x00000000        0x0 STM32F4xx_StdPeriph_Driver\src\stm32f4xx_sdio.o
 .text          0x00000000      0xacc STM32F4xx_StdPeriph_Driver\src\stm32f4xx_rtc.o
 .data          0x00000000        0x0 STM32F4xx_StdPeriph_Driver\src\stm32f4xx_rtc.o
 .bss           0x00000000        0x0 STM32F4xx_StdPeriph_Driver\src\stm32f4xx_rtc.o
 .text          0x00000000       0xa4 STM32F4xx_StdPeriph_Driver\src\stm32f4xx_rng.o
 .data          0x00000000        0x0 STM32F4xx_StdPeriph_Driver\src\stm32f4xx_rng.o
 .bss           0x00000000        0x0 STM32F4xx_StdPeriph_Driver\src\stm32f4xx_rng.o
 .bss           0x00000000        0x0 STM32F4xx_StdPeriph_Driver\src\stm32f4xx_rcc.o
 .text          0x00000000      0x10c STM32F4xx_StdPeriph_Driver\src\stm32f4xx_pwr.o
 .data          0x00000000        0x0 STM32F4xx_StdPeriph_Driver\src\stm32f4xx_pwr.o
 .bss           0x00000000        0x0 STM32F4xx_StdPeriph_Driver\src\stm32f4xx_pwr.o
 .text          0x00000000       0x58 STM32F4xx_StdPeriph_Driver\src\stm32f4xx_iwdg.o
 .data          0x00000000        0x0 STM32F4xx_StdPeriph_Driver\src\stm32f4xx_iwdg.o
 .bss           0x00000000        0x0 STM32F4xx_StdPeriph_Driver\src\stm32f4xx_iwdg.o
 .text          0x00000000      0x410 STM32F4xx_StdPeriph_Driver\src\stm32f4xx_i2c.o
 .data          0x00000000        0x0 STM32F4xx_StdPeriph_Driver\src\stm32f4xx_i2c.o
 .bss           0x00000000        0x0 STM32F4xx_StdPeriph_Driver\src\stm32f4xx_i2c.o
 .text          0x00000000      0x1e2 STM32F4xx_StdPeriph_Driver\src\stm32f4xx_hash_sha1.o
 .data          0x00000000        0x0 STM32F4xx_StdPeriph_Driver\src\stm32f4xx_hash_sha1.o
 .bss           0x00000000        0x0 STM32F4xx_StdPeriph_Driver\src\stm32f4xx_hash_sha1.o
 .text          0x00000000      0x1d6 STM32F4xx_StdPeriph_Driver\src\stm32f4xx_hash_md5.o
 .data          0x00000000        0x0 STM32F4xx_StdPeriph_Driver\src\stm32f4xx_hash_md5.o
 .bss           0x00000000        0x0 STM32F4xx_StdPeriph_Driver\src\stm32f4xx_hash_md5.o
 .text          0x00000000      0x1c4 STM32F4xx_StdPeriph_Driver\src\stm32f4xx_hash.o
 .data          0x00000000        0x0 STM32F4xx_StdPeriph_Driver\src\stm32f4xx_hash.o
 .bss           0x00000000        0x0 STM32F4xx_StdPeriph_Driver\src\stm32f4xx_hash.o
 .data          0x00000000        0x0 STM32F4xx_StdPeriph_Driver\src\stm32f4xx_gpio.o
 .bss           0x00000000        0x0 STM32F4xx_StdPeriph_Driver\src\stm32f4xx_gpio.o
 .data          0x00000000        0x0 STM32F4xx_StdPeriph_Driver\src\stm32f4xx_fsmc.o
 .bss           0x00000000        0x0 STM32F4xx_StdPeriph_Driver\src\stm32f4xx_fsmc.o
 .text          0x00000000      0x404 STM32F4xx_StdPeriph_Driver\src\stm32f4xx_flash.o
 .data          0x00000000        0x0 STM32F4xx_StdPeriph_Driver\src\stm32f4xx_flash.o
 .bss           0x00000000        0x0 STM32F4xx_StdPeriph_Driver\src\stm32f4xx_flash.o
 .data          0x00000000        0x0 STM32F4xx_StdPeriph_Driver\src\stm32f4xx_exti.o
 .bss           0x00000000        0x0 STM32F4xx_StdPeriph_Driver\src\stm32f4xx_exti.o
 .text          0x00000000      0x348 STM32F4xx_StdPeriph_Driver\src\stm32f4xx_dma.o
 .data          0x00000000        0x0 STM32F4xx_StdPeriph_Driver\src\stm32f4xx_dma.o
 .bss           0x00000000        0x0 STM32F4xx_StdPeriph_Driver\src\stm32f4xx_dma.o
 .text          0x00000000      0x1a8 STM32F4xx_StdPeriph_Driver\src\stm32f4xx_dcmi.o
 .data          0x00000000        0x0 STM32F4xx_StdPeriph_Driver\src\stm32f4xx_dcmi.o
 .bss           0x00000000        0x0 STM32F4xx_StdPeriph_Driver\src\stm32f4xx_dcmi.o
 .text          0x00000000       0x70 STM32F4xx_StdPeriph_Driver\src\stm32f4xx_dbgmcu.o
 .data          0x00000000        0x0 STM32F4xx_StdPeriph_Driver\src\stm32f4xx_dbgmcu.o
 .bss           0x00000000        0x0 STM32F4xx_StdPeriph_Driver\src\stm32f4xx_dbgmcu.o
 .text          0x00000000      0x1f0 STM32F4xx_StdPeriph_Driver\src\stm32f4xx_dac.o
 .data          0x00000000        0x0 STM32F4xx_StdPeriph_Driver\src\stm32f4xx_dac.o
 .bss           0x00000000        0x0 STM32F4xx_StdPeriph_Driver\src\stm32f4xx_dac.o
 .text          0x00000000      0x1de STM32F4xx_StdPeriph_Driver\src\stm32f4xx_cryp_tdes.o
 .data          0x00000000        0x0 STM32F4xx_StdPeriph_Driver\src\stm32f4xx_cryp_tdes.o
 .bss           0x00000000        0x0 STM32F4xx_StdPeriph_Driver\src\stm32f4xx_cryp_tdes.o
 .text          0x00000000      0x19a STM32F4xx_StdPeriph_Driver\src\stm32f4xx_cryp_des.o
 .data          0x00000000        0x0 STM32F4xx_StdPeriph_Driver\src\stm32f4xx_cryp_des.o
 .bss           0x00000000        0x0 STM32F4xx_StdPeriph_Driver\src\stm32f4xx_cryp_des.o
 .text          0x00000000      0x4ec STM32F4xx_StdPeriph_Driver\src\stm32f4xx_cryp_aes.o
 .data          0x00000000        0x0 STM32F4xx_StdPeriph_Driver\src\stm32f4xx_cryp_aes.o
 .bss           0x00000000        0x0 STM32F4xx_StdPeriph_Driver\src\stm32f4xx_cryp_aes.o
 .text          0x00000000      0x27c STM32F4xx_StdPeriph_Driver\src\stm32f4xx_cryp.o
 .data          0x00000000        0x0 STM32F4xx_StdPeriph_Driver\src\stm32f4xx_cryp.o
 .bss           0x00000000        0x0 STM32F4xx_StdPeriph_Driver\src\stm32f4xx_cryp.o
 .text          0x00000000       0x5c STM32F4xx_StdPeriph_Driver\src\stm32f4xx_crc.o
 .data          0x00000000        0x0 STM32F4xx_StdPeriph_Driver\src\stm32f4xx_crc.o
 .bss           0x00000000        0x0 STM32F4xx_StdPeriph_Driver\src\stm32f4xx_crc.o
 .text          0x00000000      0x7c4 STM32F4xx_StdPeriph_Driver\src\stm32f4xx_can.o
 .data          0x00000000        0x0 STM32F4xx_StdPeriph_Driver\src\stm32f4xx_can.o
 .bss           0x00000000        0x0 STM32F4xx_StdPeriph_Driver\src\stm32f4xx_can.o
 .text          0x00000000      0x3c0 STM32F4xx_StdPeriph_Driver\src\stm32f4xx_adc.o
 .data          0x00000000        0x0 STM32F4xx_StdPeriph_Driver\src\stm32f4xx_adc.o
 .bss           0x00000000        0x0 STM32F4xx_StdPeriph_Driver\src\stm32f4xx_adc.o
 .data          0x00000000        0x0 STM32F4xx_StdPeriph_Driver\src\misc.o
 .bss           0x00000000        0x0 STM32F4xx_StdPeriph_Driver\src\misc.o
 .bss           0x00000000        0x0 STM32F4-Discovery\stm32f4_discovery.o
 COMMON         0x00000000        0x4 STM32F4-Discovery\stm32f4_discovery.o
 .text          0x00000000      0x2f8 I2C-DS1621\I2C-DS1621.o
 .data          0x00000000        0x0 I2C-DS1621\I2C-DS1621.o
 .bss           0x00000000        0x0 I2C-DS1621\I2C-DS1621.o
 COMMON         0x00000000        0x2 I2C-DS1621\I2C-DS1621.o
 .data          0x00000000        0x0 FreeRTOS\timers.o
 .data          0x00000000        0x0 FreeRTOS\queue.o
 .bss           0x00000000        0x0 FreeRTOS\queue.o
 .bss           0x00000000        0x0 FreeRTOS\portable\port.o
 .rodata        0x00000000        0x4 FreeRTOS\portable\port.o
 .data          0x00000000        0x0 FreeRTOS\list.o
 .bss           0x00000000        0x0 FreeRTOS\list.o
 .text          0x00000000      0x228 FreeRTOS\croutine.o
 .data          0x00000000        0x0 FreeRTOS\croutine.o
 .bss           0x00000000       0x80 FreeRTOS\croutine.o
 .text          0x00000000      0x188 DS1307\DS1307.o
 .data          0x00000000        0x0 DS1307\DS1307.o
 .bss           0x00000000        0x0 DS1307\DS1307.o
 .data          0x00000000        0x0 c:/program files (x86)/codesourcery/sourcery g++ lite/bin/../lib/gcc/arm-none-eabi/4.4.1/../../../../arm-none-eabi/lib/thumb2\libc.a(lib_a-errno.o)
 .bss           0x00000000        0x0 c:/program files (x86)/codesourcery/sourcery g++ lite/bin/../lib/gcc/arm-none-eabi/4.4.1/../../../../arm-none-eabi/lib/thumb2\libc.a(lib_a-errno.o)
 .text          0x00000000        0x0 c:/program files (x86)/codesourcery/sourcery g++ lite/bin/../lib/gcc/arm-none-eabi/4.4.1/../../../../arm-none-eabi/lib/thumb2\libc.a(lib_a-impure.o)
 .bss           0x00000000        0x0 c:/program files (x86)/codesourcery/sourcery g++ lite/bin/../lib/gcc/arm-none-eabi/4.4.1/../../../../arm-none-eabi/lib/thumb2\libc.a(lib_a-impure.o)
 .rodata        0x00000000        0x4 c:/program files (x86)/codesourcery/sourcery g++ lite/bin/../lib/gcc/arm-none-eabi/4.4.1/../../../../arm-none-eabi/lib/thumb2\libc.a(lib_a-impure.o)
 .data          0x00000000        0x0 c:/program files (x86)/codesourcery/sourcery g++ lite/bin/../lib/gcc/arm-none-eabi/4.4.1/../../../../arm-none-eabi/lib/thumb2\libc.a(lib_a-init.o)
 .bss           0x00000000        0x0 c:/program files (x86)/codesourcery/sourcery g++ lite/bin/../lib/gcc/arm-none-eabi/4.4.1/../../../../arm-none-eabi/lib/thumb2\libc.a(lib_a-init.o)
 .data          0x00000000        0x0 c:/program files (x86)/codesourcery/sourcery g++ lite/bin/../lib/gcc/arm-none-eabi/4.4.1/../../../../arm-none-eabi/lib/thumb2\libc.a(lib_a-memcmp.o)
 .bss           0x00000000        0x0 c:/program files (x86)/codesourcery/sourcery g++ lite/bin/../lib/gcc/arm-none-eabi/4.4.1/../../../../arm-none-eabi/lib/thumb2\libc.a(lib_a-memcmp.o)
 .data          0x00000000        0x0 c:/program files (x86)/codesourcery/sourcery g++ lite/bin/../lib/gcc/arm-none-eabi/4.4.1/../../../../arm-none-eabi/lib/thumb2\libc.a(lib_a-memcpy.o)
 .bss           0x00000000        0x0 c:/program files (x86)/codesourcery/sourcery g++ lite/bin/../lib/gcc/arm-none-eabi/4.4.1/../../../../arm-none-eabi/lib/thumb2\libc.a(lib_a-memcpy.o)
 .data          0x00000000        0x0 c:/program files (x86)/codesourcery/sourcery g++ lite/bin/../lib/gcc/arm-none-eabi/4.4.1/../../../../arm-none-eabi/lib/thumb2\libc.a(lib_a-memset.o)
 .bss           0x00000000        0x0 c:/program files (x86)/codesourcery/sourcery g++ lite/bin/../lib/gcc/arm-none-eabi/4.4.1/../../../../arm-none-eabi/lib/thumb2\libc.a(lib_a-memset.o)
 .data          0x00000000        0x0 c:/program files (x86)/codesourcery/sourcery g++ lite/bin/../lib/gcc/arm-none-eabi/4.4.1/../../../../arm-none-eabi/lib/thumb2\libc.a(lib_a-sprintf.o)
 .bss           0x00000000        0x0 c:/program files (x86)/codesourcery/sourcery g++ lite/bin/../lib/gcc/arm-none-eabi/4.4.1/../../../../arm-none-eabi/lib/thumb2\libc.a(lib_a-sprintf.o)
 .data          0x00000000        0x0 c:/program files (x86)/codesourcery/sourcery g++ lite/bin/../lib/gcc/arm-none-eabi/4.4.1/../../../../arm-none-eabi/lib/thumb2\libc.a(lib_a-strcat.o)
 .bss           0x00000000        0x0 c:/program files (x86)/codesourcery/sourcery g++ lite/bin/../lib/gcc/arm-none-eabi/4.4.1/../../../../arm-none-eabi/lib/thumb2\libc.a(lib_a-strcat.o)
 .data          0x00000000        0x0 c:/program files (x86)/codesourcery/sourcery g++ lite/bin/../lib/gcc/arm-none-eabi/4.4.1/../../../../arm-none-eabi/lib/thumb2\libc.a(lib_a-strcpy.o)
 .bss           0x00000000        0x0 c:/program files (x86)/codesourcery/sourcery g++ lite/bin/../lib/gcc/arm-none-eabi/4.4.1/../../../../arm-none-eabi/lib/thumb2\libc.a(lib_a-strcpy.o)
 .data          0x00000000        0x0 c:/program files (x86)/codesourcery/sourcery g++ lite/bin/../lib/gcc/arm-none-eabi/4.4.1/../../../../arm-none-eabi/lib/thumb2\libc.a(lib_a-strlen.o)
 .bss           0x00000000        0x0 c:/program files (x86)/codesourcery/sourcery g++ lite/bin/../lib/gcc/arm-none-eabi/4.4.1/../../../../arm-none-eabi/lib/thumb2\libc.a(lib_a-strlen.o)
 .data          0x00000000        0x0 c:/program files (x86)/codesourcery/sourcery g++ lite/bin/../lib/gcc/arm-none-eabi/4.4.1/../../../../arm-none-eabi/lib/thumb2\libc.a(lib_a-strncpy.o)
 .bss           0x00000000        0x0 c:/program files (x86)/codesourcery/sourcery g++ lite/bin/../lib/gcc/arm-none-eabi/4.4.1/../../../../arm-none-eabi/lib/thumb2\libc.a(lib_a-strncpy.o)
 .data          0x00000000        0x0 c:/program files (x86)/codesourcery/sourcery g++ lite/bin/../lib/gcc/arm-none-eabi/4.4.1/../../../../arm-none-eabi/lib/thumb2\libc.a(lib_a-svfprintf.o)
 .bss           0x00000000        0x0 c:/program files (x86)/codesourcery/sourcery g++ lite/bin/../lib/gcc/arm-none-eabi/4.4.1/../../../../arm-none-eabi/lib/thumb2\libc.a(lib_a-svfprintf.o)
 .data          0x00000000        0x0 c:/program files (x86)/codesourcery/sourcery g++ lite/bin/../lib/gcc/arm-none-eabi/4.4.1/../../../../arm-none-eabi/lib/thumb2\libc.a(lib_a-dtoa.o)
 .bss           0x00000000        0x0 c:/program files (x86)/codesourcery/sourcery g++ lite/bin/../lib/gcc/arm-none-eabi/4.4.1/../../../../arm-none-eabi/lib/thumb2\libc.a(lib_a-dtoa.o)
 .data          0x00000000        0x0 c:/program files (x86)/codesourcery/sourcery g++ lite/bin/../lib/gcc/arm-none-eabi/4.4.1/../../../../arm-none-eabi/lib/thumb2\libc.a(lib_a-freer.o)
 .bss           0x00000000        0x0 c:/program files (x86)/codesourcery/sourcery g++ lite/bin/../lib/gcc/arm-none-eabi/4.4.1/../../../../arm-none-eabi/lib/thumb2\libc.a(lib_a-freer.o)
 .data          0x00000000       0x10 c:/program files (x86)/codesourcery/sourcery g++ lite/bin/../lib/gcc/arm-none-eabi/4.4.1/../../../../arm-none-eabi/lib/thumb2\libc.a(lib_a-locale.o)
 .bss           0x00000000        0xc c:/program files (x86)/codesourcery/sourcery g++ lite/bin/../lib/gcc/arm-none-eabi/4.4.1/../../../../arm-none-eabi/lib/thumb2\libc.a(lib_a-locale.o)
 .data          0x00000000        0x0 c:/program files (x86)/codesourcery/sourcery g++ lite/bin/../lib/gcc/arm-none-eabi/4.4.1/../../../../arm-none-eabi/lib/thumb2\libc.a(lib_a-malloc.o)
 .bss           0x00000000        0x0 c:/program files (x86)/codesourcery/sourcery g++ lite/bin/../lib/gcc/arm-none-eabi/4.4.1/../../../../arm-none-eabi/lib/thumb2\libc.a(lib_a-malloc.o)
 .data          0x00000000        0x0 c:/program files (x86)/codesourcery/sourcery g++ lite/bin/../lib/gcc/arm-none-eabi/4.4.1/../../../../arm-none-eabi/lib/thumb2\libc.a(lib_a-memchr.o)
 .bss           0x00000000        0x0 c:/program files (x86)/codesourcery/sourcery g++ lite/bin/../lib/gcc/arm-none-eabi/4.4.1/../../../../arm-none-eabi/lib/thumb2\libc.a(lib_a-memchr.o)
 .data          0x00000000        0x0 c:/program files (x86)/codesourcery/sourcery g++ lite/bin/../lib/gcc/arm-none-eabi/4.4.1/../../../../arm-none-eabi/lib/thumb2\libc.a(lib_a-memmove.o)
 .bss           0x00000000        0x0 c:/program files (x86)/codesourcery/sourcery g++ lite/bin/../lib/gcc/arm-none-eabi/4.4.1/../../../../arm-none-eabi/lib/thumb2\libc.a(lib_a-memmove.o)
 .data          0x00000000        0x0 c:/program files (x86)/codesourcery/sourcery g++ lite/bin/../lib/gcc/arm-none-eabi/4.4.1/../../../../arm-none-eabi/lib/thumb2\libc.a(lib_a-mlock.o)
 .bss           0x00000000        0x0 c:/program files (x86)/codesourcery/sourcery g++ lite/bin/../lib/gcc/arm-none-eabi/4.4.1/../../../../arm-none-eabi/lib/thumb2\libc.a(lib_a-mlock.o)
 .data          0x00000000        0x0 c:/program files (x86)/codesourcery/sourcery g++ lite/bin/../lib/gcc/arm-none-eabi/4.4.1/../../../../arm-none-eabi/lib/thumb2\libc.a(lib_a-mprec.o)
 .bss           0x00000000        0x0 c:/program files (x86)/codesourcery/sourcery g++ lite/bin/../lib/gcc/arm-none-eabi/4.4.1/../../../../arm-none-eabi/lib/thumb2\libc.a(lib_a-mprec.o)
 .data          0x00000000        0x0 c:/program files (x86)/codesourcery/sourcery g++ lite/bin/../lib/gcc/arm-none-eabi/4.4.1/../../../../arm-none-eabi/lib/thumb2\libc.a(lib_a-reallocr.o)
 .bss           0x00000000        0x0 c:/program files (x86)/codesourcery/sourcery g++ lite/bin/../lib/gcc/arm-none-eabi/4.4.1/../../../../arm-none-eabi/lib/thumb2\libc.a(lib_a-reallocr.o)
 .data          0x00000000        0x0 c:/program files (x86)/codesourcery/sourcery g++ lite/bin/../lib/gcc/arm-none-eabi/4.4.1/../../../../arm-none-eabi/lib/thumb2\libc.a(lib_a-s_isinfd.o)
 .bss           0x00000000        0x0 c:/program files (x86)/codesourcery/sourcery g++ lite/bin/../lib/gcc/arm-none-eabi/4.4.1/../../../../arm-none-eabi/lib/thumb2\libc.a(lib_a-s_isinfd.o)
 .data          0x00000000        0x0 c:/program files (x86)/codesourcery/sourcery g++ lite/bin/../lib/gcc/arm-none-eabi/4.4.1/../../../../arm-none-eabi/lib/thumb2\libc.a(lib_a-s_isnand.o)
 .bss           0x00000000        0x0 c:/program files (x86)/codesourcery/sourcery g++ lite/bin/../lib/gcc/arm-none-eabi/4.4.1/../../../../arm-none-eabi/lib/thumb2\libc.a(lib_a-s_isnand.o)
 .data          0x00000000        0x0 c:/program files (x86)/codesourcery/sourcery g++ lite/bin/../lib/gcc/arm-none-eabi/4.4.1/../../../../arm-none-eabi/lib/thumb2\libc.a(lib_a-sbrkr.o)
 .bss           0x00000000        0x0 c:/program files (x86)/codesourcery/sourcery g++ lite/bin/../lib/gcc/arm-none-eabi/4.4.1/../../../../arm-none-eabi/lib/thumb2\libc.a(lib_a-sbrkr.o)
 .data          0x00000000        0x0 c:/program files (x86)/codesourcery/sourcery g++ lite/bin/../lib/gcc/arm-none-eabi/4.4.1/../../../../arm-none-eabi/lib/thumb2\libc.a(lib_a-strcmp.o)
 .bss           0x00000000        0x0 c:/program files (x86)/codesourcery/sourcery g++ lite/bin/../lib/gcc/arm-none-eabi/4.4.1/../../../../arm-none-eabi/lib/thumb2\libc.a(lib_a-strcmp.o)
 .data          0x00000000        0x0 c:/program files (x86)/codesourcery/sourcery g++ lite/bin/../lib/gcc/arm-none-eabi/4.4.1/../../../../arm-none-eabi/lib/thumb2\libc.a(lib_a-callocr.o)
 .bss           0x00000000        0x0 c:/program files (x86)/codesourcery/sourcery g++ lite/bin/../lib/gcc/arm-none-eabi/4.4.1/../../../../arm-none-eabi/lib/thumb2\libc.a(lib_a-callocr.o)
 .text          0x00000000      0x10c c:/program files (x86)/codesourcery/sourcery g++ lite/bin/../lib/gcc/arm-none-eabi/4.4.1/../../../../arm-none-eabi/lib/thumb2\libc.a(lib_a-reent.o)
 .data          0x00000000        0x0 c:/program files (x86)/codesourcery/sourcery g++ lite/bin/../lib/gcc/arm-none-eabi/4.4.1/../../../../arm-none-eabi/lib/thumb2\libc.a(lib_a-reent.o)
 .bss           0x00000000        0x0 c:/program files (x86)/codesourcery/sourcery g++ lite/bin/../lib/gcc/arm-none-eabi/4.4.1/../../../../arm-none-eabi/lib/thumb2\libc.a(lib_a-reent.o)
 .data          0x00000000        0x0 c:/program files (x86)/codesourcery/sourcery g++ lite/bin/../lib/gcc/arm-none-eabi/4.4.1/thumb2\libgcc.a(_udivsi3.o)
 .bss           0x00000000        0x0 c:/program files (x86)/codesourcery/sourcery g++ lite/bin/../lib/gcc/arm-none-eabi/4.4.1/thumb2\libgcc.a(_udivsi3.o)
 .data          0x00000000        0x0 c:/program files (x86)/codesourcery/sourcery g++ lite/bin/../lib/gcc/arm-none-eabi/4.4.1/thumb2\libgcc.a(_dvmd_tls.o)
 .bss           0x00000000        0x0 c:/program files (x86)/codesourcery/sourcery g++ lite/bin/../lib/gcc/arm-none-eabi/4.4.1/thumb2\libgcc.a(_dvmd_tls.o)
 .data          0x00000000        0x0 c:/program files (x86)/codesourcery/sourcery g++ lite/bin/../lib/gcc/arm-none-eabi/4.4.1/thumb2\libgcc.a(_arm_addsubdf3.o)
 .bss           0x00000000        0x0 c:/program files (x86)/codesourcery/sourcery g++ lite/bin/../lib/gcc/arm-none-eabi/4.4.1/thumb2\libgcc.a(_arm_addsubdf3.o)
 .data          0x00000000        0x0 c:/program files (x86)/codesourcery/sourcery g++ lite/bin/../lib/gcc/arm-none-eabi/4.4.1/thumb2\libgcc.a(_arm_muldivdf3.o)
 .bss           0x00000000        0x0 c:/program files (x86)/codesourcery/sourcery g++ lite/bin/../lib/gcc/arm-none-eabi/4.4.1/thumb2\libgcc.a(_arm_muldivdf3.o)
 .data          0x00000000        0x0 c:/program files (x86)/codesourcery/sourcery g++ lite/bin/../lib/gcc/arm-none-eabi/4.4.1/thumb2\libgcc.a(_arm_cmpdf2.o)
 .bss           0x00000000        0x0 c:/program files (x86)/codesourcery/sourcery g++ lite/bin/../lib/gcc/arm-none-eabi/4.4.1/thumb2\libgcc.a(_arm_cmpdf2.o)
 .data          0x00000000        0x0 c:/program files (x86)/codesourcery/sourcery g++ lite/bin/../lib/gcc/arm-none-eabi/4.4.1/thumb2\libgcc.a(_arm_fixdfsi.o)
 .bss           0x00000000        0x0 c:/program files (x86)/codesourcery/sourcery g++ lite/bin/../lib/gcc/arm-none-eabi/4.4.1/thumb2\libgcc.a(_arm_fixdfsi.o)
 .data          0x00000000        0x0 c:/program files (x86)/codesourcery/sourcery g++ lite/bin/../lib/gcc/arm-none-eabi/4.4.1/thumb2\libgcc.a(_arm_addsubsf3.o)
 .bss           0x00000000        0x0 c:/program files (x86)/codesourcery/sourcery g++ lite/bin/../lib/gcc/arm-none-eabi/4.4.1/thumb2\libgcc.a(_arm_addsubsf3.o)
 .data          0x00000000        0x0 c:/program files (x86)/codesourcery/sourcery g++ lite/bin/../lib/gcc/arm-none-eabi/4.4.1/thumb2\libgcc.a(_arm_fixsfsi.o)
 .bss           0x00000000        0x0 c:/program files (x86)/codesourcery/sourcery g++ lite/bin/../lib/gcc/arm-none-eabi/4.4.1/thumb2\libgcc.a(_arm_fixsfsi.o)
 .data          0x00000000        0x0 c:/program files (x86)/codesourcery/sourcery g++ lite/bin/../lib/gcc/arm-none-eabi/4.4.1/thumb2\libgcc.a(_aeabi_uldivmod.o)
 .bss           0x00000000        0x0 c:/program files (x86)/codesourcery/sourcery g++ lite/bin/../lib/gcc/arm-none-eabi/4.4.1/thumb2\libgcc.a(_aeabi_uldivmod.o)
 .data          0x00000000        0x0 c:/program files (x86)/codesourcery/sourcery g++ lite/bin/../lib/gcc/arm-none-eabi/4.4.1/thumb2\libgcc.a(bpabi.o)
 .bss           0x00000000        0x0 c:/program files (x86)/codesourcery/sourcery g++ lite/bin/../lib/gcc/arm-none-eabi/4.4.1/thumb2\libgcc.a(bpabi.o)
 .data          0x00000000        0x0 c:/program files (x86)/codesourcery/sourcery g++ lite/bin/../lib/gcc/arm-none-eabi/4.4.1/thumb2\libgcc.a(_divdi3.o)
 .bss           0x00000000        0x0 c:/program files (x86)/codesourcery/sourcery g++ lite/bin/../lib/gcc/arm-none-eabi/4.4.1/thumb2\libgcc.a(_divdi3.o)
 .ARM.extab     0x00000000        0x0 c:/program files (x86)/codesourcery/sourcery g++ lite/bin/../lib/gcc/arm-none-eabi/4.4.1/thumb2\libgcc.a(_divdi3.o)
 .data          0x00000000        0x0 c:/program files (x86)/codesourcery/sourcery g++ lite/bin/../lib/gcc/arm-none-eabi/4.4.1/thumb2\libgcc.a(_udivdi3.o)
 .bss           0x00000000        0x0 c:/program files (x86)/codesourcery/sourcery g++ lite/bin/../lib/gcc/arm-none-eabi/4.4.1/thumb2\libgcc.a(_udivdi3.o)
 .ARM.extab     0x00000000        0x0 c:/program files (x86)/codesourcery/sourcery g++ lite/bin/../lib/gcc/arm-none-eabi/4.4.1/thumb2\libgcc.a(_udivdi3.o)
 .text          0x00000000        0x0 c:/program files (x86)/codesourcery/sourcery g++ lite/bin/../lib/gcc/arm-none-eabi/4.4.1/thumb2/crtend.o
 .data          0x00000000        0x0 c:/program files (x86)/codesourcery/sourcery g++ lite/bin/../lib/gcc/arm-none-eabi/4.4.1/thumb2/crtend.o
 .bss           0x00000000        0x0 c:/program files (x86)/codesourcery/sourcery g++ lite/bin/../lib/gcc/arm-none-eabi/4.4.1/thumb2/crtend.o
 .jcr           0x00000000        0x4 c:/program files (x86)/codesourcery/sourcery g++ lite/bin/../lib/gcc/arm-none-eabi/4.4.1/thumb2/crtend.o
 .text          0x00000000        0x0 c:/program files (x86)/codesourcery/sourcery g++ lite/bin/../lib/gcc/arm-none-eabi/4.4.1/thumb2/crtn.o
 .data          0x00000000        0x0 c:/program files (x86)/codesourcery/sourcery g++ lite/bin/../lib/gcc/arm-none-eabi/4.4.1/thumb2/crtn.o
 .bss           0x00000000        0x0 c:/program files (x86)/codesourcery/sourcery g++ lite/bin/../lib/gcc/arm-none-eabi/4.4.1/thumb2/crtn.o

Memory Configuration

Name             Origin             Length             Attributes
FLASH            0x08000000         0x00100000         xr
RAM              0x20000000         0x00030000         xrw
MEMORY_B1        0x60000000         0x00000000         xr
*default*        0x00000000         0xffffffff

Linker script and memory map

LOAD c:/program files (x86)/codesourcery/sourcery g++ lite/bin/../lib/gcc/arm-none-eabi/4.4.1/thumb2/crti.o
LOAD c:/program files (x86)/codesourcery/sourcery g++ lite/bin/../lib/gcc/arm-none-eabi/4.4.1/thumb2/crtbegin.o
LOAD startup\startup_stm32f4xx.o
LOAD Utils\timetemp.o
LOAD Utils\syscalls-stubs.o
LOAD Utils\retarget.o
LOAD Utils\itoa.o
LOAD User\system_stm32f4xx.o
LOAD User\stm32f4xx_it.o
LOAD User\main.o
LOAD STM32F4xx_StdPeriph_Driver\src\stm32f4xx_wwdg.o
LOAD STM32F4xx_StdPeriph_Driver\src\stm32f4xx_usart.o
LOAD STM32F4xx_StdPeriph_Driver\src\stm32f4xx_tim.o
LOAD STM32F4xx_StdPeriph_Driver\src\stm32f4xx_syscfg.o
LOAD STM32F4xx_StdPeriph_Driver\src\stm32f4xx_spi.o
LOAD STM32F4xx_StdPeriph_Driver\src\stm32f4xx_sdio.o
LOAD STM32F4xx_StdPeriph_Driver\src\stm32f4xx_rtc.o
LOAD STM32F4xx_StdPeriph_Driver\src\stm32f4xx_rng.o
LOAD STM32F4xx_StdPeriph_Driver\src\stm32f4xx_rcc.o
LOAD STM32F4xx_StdPeriph_Driver\src\stm32f4xx_pwr.o
LOAD STM32F4xx_StdPeriph_Driver\src\stm32f4xx_iwdg.o
LOAD STM32F4xx_StdPeriph_Driver\src\stm32f4xx_i2c.o
LOAD STM32F4xx_StdPeriph_Driver\src\stm32f4xx_hash_sha1.o
LOAD STM32F4xx_StdPeriph_Driver\src\stm32f4xx_hash_md5.o
LOAD STM32F4xx_StdPeriph_Driver\src\stm32f4xx_hash.o
LOAD STM32F4xx_StdPeriph_Driver\src\stm32f4xx_gpio.o
LOAD STM32F4xx_StdPeriph_Driver\src\stm32f4xx_fsmc.o
LOAD STM32F4xx_StdPeriph_Driver\src\stm32f4xx_flash.o
LOAD STM32F4xx_StdPeriph_Driver\src\stm32f4xx_exti.o
LOAD STM32F4xx_StdPeriph_Driver\src\stm32f4xx_dma.o
LOAD STM32F4xx_StdPeriph_Driver\src\stm32f4xx_dcmi.o
LOAD STM32F4xx_StdPeriph_Driver\src\stm32f4xx_dbgmcu.o
LOAD STM32F4xx_StdPeriph_Driver\src\stm32f4xx_dac.o
LOAD STM32F4xx_StdPeriph_Driver\src\stm32f4xx_cryp_tdes.o
LOAD STM32F4xx_StdPeriph_Driver\src\stm32f4xx_cryp_des.o
LOAD STM32F4xx_StdPeriph_Driver\src\stm32f4xx_cryp_aes.o
LOAD STM32F4xx_StdPeriph_Driver\src\stm32f4xx_cryp.o
LOAD STM32F4xx_StdPeriph_Driver\src\stm32f4xx_crc.o
LOAD STM32F4xx_StdPeriph_Driver\src\stm32f4xx_can.o
LOAD STM32F4xx_StdPeriph_Driver\src\stm32f4xx_adc.o
LOAD STM32F4xx_StdPeriph_Driver\src\misc.o
LOAD STM32F4-Discovery\stm32f4_discovery.o
LOAD RFID\rfid.o
LOAD I2C-DS1621\I2C-DS1621.o
LOAD FreeRTOS\timers.o
LOAD FreeRTOS\tasks.o
LOAD FreeRTOS\queue.o
LOAD FreeRTOS\portable\port.o
LOAD FreeRTOS\portable\heap_2.o
LOAD FreeRTOS\list.o
LOAD FreeRTOS\croutine.o
LOAD DS1307\DS1307.o
LOAD c:/program files (x86)/codesourcery/sourcery g++ lite/bin/../lib/gcc/arm-none-eabi/4.4.1/../../../../arm-none-eabi/lib/thumb2\libc.a
LOAD c:/program files (x86)/codesourcery/sourcery g++ lite/bin/../lib/gcc/arm-none-eabi/4.4.1/thumb2\libgcc.a
START GROUP
LOAD c:/program files (x86)/codesourcery/sourcery g++ lite/bin/../lib/gcc/arm-none-eabi/4.4.1/thumb2\libgcc.a
LOAD c:/program files (x86)/codesourcery/sourcery g++ lite/bin/../lib/gcc/arm-none-eabi/4.4.1/../../../../arm-none-eabi/lib/thumb2\libc.a
END GROUP
LOAD c:/program files (x86)/codesourcery/sourcery g++ lite/bin/../lib/gcc/arm-none-eabi/4.4.1/thumb2/crtend.o
LOAD c:/program files (x86)/codesourcery/sourcery g++ lite/bin/../lib/gcc/arm-none-eabi/4.4.1/thumb2/crtn.o
                0x20020000                _estack = 0x20020000
                0x00000000                _Min_Heap_Size = 0x0
                0x00000400                _Min_Stack_Size = 0x400

.isr_vector     0x08000000      0x188
                0x08000000                . = ALIGN (0x4)
 *(.isr_vector)
 .isr_vector    0x08000000      0x188 startup\startup_stm32f4xx.o
                0x08000000                g_pfnVectors
                0x08000188                . = ALIGN (0x4)

.text           0x08000188    0x5a000
                0x08000188                . = ALIGN (0x4)
 *(.text)
 .text          0x08000188       0x30 c:/program files (x86)/codesourcery/sourcery g++ lite/bin/../lib/gcc/arm-none-eabi/4.4.1/thumb2/crtbegin.o
 .text          0x080001b8      0x170 Utils\timetemp.o
                0x080001b8                CalculateTime
                0x080001e6                FormatTimeString2
                0x0800021e                FormatTimeString
                0x08000256                FormatTemperatureStringHR
                0x080002e6                FormatTemperatureString
 .text          0x08000328       0xb0 Utils\syscalls-stubs.o
                0x08000328                _sbrk
                0x08000354                _fstat
                0x0800035e                _isatty
                0x08000362                _read
                0x0800036a                _write
                0x08000388                _unlink
                0x08000398                _open
                0x080003a8                _lseek
                0x080003b8                _link
                0x080003c8                _close
 .text          0x080003d8       0x70 Utils\retarget.o
                0x080003d8                fputc
 .text          0x08000448       0x68 Utils\itoa.o
                0x08000448                reverse
                0x08000470                itoa
 .text          0x080004b0      0x184 User\system_stm32f4xx.o
                0x080004b0                SystemCoreClockUpdate
                0x08000548                SystemInit
 .text          0x08000634        0xc User\stm32f4xx_it.o
                0x08000634                NMI_Handler
                0x08000636                HardFault_Handler
                0x08000638                MemManage_Handler
                0x0800063a                BusFault_Handler
                0x0800063c                UsageFault_Handler
                0x0800063e                DebugMon_Handler
 .text          0x08000640     0x3440 User\main.o
                0x08000640                LCD_WriteRAM_Prepare
                0x0800064c                LCD_WriteRAM
                0x08000658                LCD_WriteReg
                0x08000668                LCD_ReadReg
                0x0800067c                LCD_DisplayOn
                0x08000684                LCD_DisplayOff
                0x0800068a                LCD_SetColors
                0x080006b4                LCD_GetColors
                0x080006d0                LCD_SetTextColor
                0x080006e8                LCD_SetBackColor
                0x08000700                LCD_CharSize
                0x08000718                LCD_SetCursor
                0x08000730                LCD_Clear
                0x08000754                PutPixel
                0x08000780                Pixel
                0x080007a4                LCD_DrawLine
                0x080007f8                LCD_DrawRect
                0x08000858                LCD_DrawSquare
                0x080008b2                LCD_DrawCircle
                0x0800097c                LCD_DrawFullRect
                0x080009bc                LCD_DrawFullSquare
                0x080009f4                LCD_DrawUniLine
                0x08000abc                LCD_DrawFullCircle
                0x08000b52                LCD_PolyLine
                0x08000be4                LCD_ClosedPolyLine
                0x08000c04                LCD_PolyLineRelative
                0x08000c08                LCD_ClosedPolyLineRelative
                0x08000c0c                LCD_FillPolyLine
                0x08000df0                DelayUS
                0x08000e06                TP_DrawPoint
                0x08000e44                DrawCross
                0x08000f36                setCalibrationMatrix
                0x08001048                getDisplayPoint
                0x08001086                delay_ms
                0x0800109a                iButton
                0x080010d0                TP_Delay
                0x080010e2                iBinaryToIntTemperature
                0x08001112                OW_FamilySkipSetup
                0x08001128                OW_CRCCalculate
                0x08001134                vApplicationTickHook
                0x08001174                iAllReset
                0x0800118c                iNotAllReset
                0x0800119e                iOneReset
                0x080011b4                iNotAllSet
                0x080011b6                iAllSet
                0x080011c8                iCmpG
                0x080011e0                iCmpL
                0x080011f8                vBoilerConditions
                0x08001244                vGroundConditions
                0x080012a4                vResetArray
                0x080012b4                Delay
                0x080012c6                LCD_SetDisplayWindow
                0x08001344                LCD_WriteBMP
                0x0800139a                vInitIcons
                0x080013f8                LCD_ClearRectangle
                0x0800144c                vTurnOnRelay
                0x08001458                vTurnOffRelay
                0x08001464                vHeaterConditions
                0x080014ec                vFurnaceConditions
                0x08001518                cInt2Temp
                0x08001568                vInitGPIO
                0x080015c8                vSystemConditions
                0x08001670                vThermostatConditions
                0x08001700                vConditionTask
                0x08001790                vRefreshTask
                0x080017d0                backToHome
                0x08001814                vTimerFunction
                0x08001898                vSystemTask
                0x0800193c                OW_Reset
                0x0800199c                OW_BitWrite
                0x080019d8                OW_ByteWrite
                0x080019f0                OW_ROMSkip
                0x08001a04                OW_ROMMatch
                0x08001a36                OW_BitRead
                0x08001a80                OW_ByteRead
                0x08001aa0                OW_ROMRead
                0x08001b0a                OW_WeakPullUp
                0x08001b34                DS1820_PowerTypeGet
                0x08001b64                DS1820_ConfigurationRecall
                0x08001b8a                DS1820_TemperatureAlarmGet
                0x08001be6                DS1820_TemperatureAlarmSet
                0x08001c40                DS1820_TemperatureGet
                0x08001c80                OW_StrongPullUp
                0x08001ca8                OW_SearchNext
                0x08001dc8                OW_SearchFirst
                0x08001dfc                DS1820_Search
                0x08001e2e                DS1820_ConfigurationStore
                0x08001e58                DS1820_TemperatureConvert
                0x08001e82                vTemperatureTask
                0x08001f80                OW_Init
                0x0800202c                DS1820_Init
                0x080020d0                Read_Y
                0x08002104                Read_X
                0x08002138                TP_GetAdXY
                0x08002154                Read_Ads7846
                0x080022a8                TP_Init
                0x080023d4                LCD_BackLight
                0x08002410                ScreenOff
                0x08002432                vTouchPanelTask
                0x08002900                TIM_Config
                0x080029c8                LCD_FSMCConfig
                0x08002a78                LCD_CtrlLinesConfig
                0x08002ba0                LCD_Init
                0x08002e6e                GetASCIICode5
                0x08002e80                GetASCIICode4
                0x08002e94                GetASCIICode3
                0x08002ea4                GetASCIICode2
                0x08002eb4                GetASCIICode1
                0x08002ec8                LCD_PutChar
                0x080030a4                LCDputc
                0x0800313c                LCDprint
                0x08003156                vInit
                0x080032e8                main
                0x0800333c                LCD_StringLine
                0x08003390                vApplicationMallocFailedHook
                0x080033b4                vApplicationStackOverflowHook
                0x080033dc                ScreenRelay
                0x080035cc                ScreenInfo
                0x08003634                ScreenSettings
                0x08003670                ScreenSetTime
                0x080037a0                ScreenNormal
                0x08003962                TouchPanel_Calibrate
 .text          0x08003a80      0x3f8 STM32F4xx_StdPeriph_Driver\src\stm32f4xx_usart.o
                0x08003a80                USART_StructInit
                0x08003a98                USART_ClockInit
                0x08003ac2                USART_ClockStructInit
                0x08003ace                USART_Cmd
                0x08003ae8                USART_SetPrescaler
                0x08003afc                USART_OverSampling8Cmd
                0x08003b16                USART_OneBitMethodCmd
                0x08003b30                USART_SendData
                0x08003b38                USART_ReceiveData
                0x08003b40                USART_SetAddress
                0x08003b58                USART_ReceiverWakeUpCmd
                0x08003b72                USART_WakeUpConfig
                0x08003b8a                USART_LINBreakDetectLengthConfig
                0x08003ba2                USART_LINCmd
                0x08003bbc                USART_SendBreak
                0x08003bc8                USART_HalfDuplexCmd
                0x08003be2                USART_SetGuardTime
                0x08003bf4                USART_SmartCardCmd
                0x08003c0e                USART_SmartCardNACKCmd
                0x08003c28                USART_IrDAConfig
                0x08003c40                USART_IrDACmd
                0x08003c5a                USART_DMACmd
                0x08003c70                USART_ITConfig
                0x08003ca6                USART_GetFlagStatus
                0x08003cb2                USART_ClearFlag
                0x08003cba                USART_GetITStatus
                0x08003d00                USART_ClearITPendingBit
                0x08003d0e                USART_Init
                0x08003dd0                USART_DeInit
 .text          0x08003e78      0xc24 STM32F4xx_StdPeriph_Driver\src\stm32f4xx_tim.o
                0x08003e78                TIM_TimeBaseInit
                0x08003f08                TIM_TimeBaseStructInit
                0x08003f1a                TIM_PrescalerConfig
                0x08003f20                TIM_CounterModeConfig
                0x08003f32                TIM_SetCounter
                0x08003f36                TIM_SetAutoreload
                0x08003f3a                TIM_GetCounter
                0x08003f3e                TIM_GetPrescaler
                0x08003f44                TIM_UpdateDisableConfig
                0x08003f5e                TIM_UpdateRequestConfig
                0x08003f78                TIM_ARRPreloadConfig
                0x08003f92                TIM_SelectOnePulseMode
                0x08003faa                TIM_SetClockDivision
                0x08003fc2                TIM_Cmd
                0x08003fdc                TIM_OC1Init
                0x08004070                TIM_OC2Init
                0x08004108                TIM_OC3Init
                0x0800419c                TIM_OC4Init
                0x08004218                TIM_OCStructInit
                0x0800422c                TIM_SelectOCxM
                0x0800427e                TIM_SetCompare1
                0x08004282                TIM_SetCompare2
                0x08004286                TIM_SetCompare3
                0x0800428a                TIM_SetCompare4
                0x0800428e                TIM_ForcedOC1Config
                0x080042a0                TIM_ForcedOC2Config
                0x080042b4                TIM_ForcedOC3Config
                0x080042c6                TIM_ForcedOC4Config
                0x080042da                TIM_OC1PreloadConfig
                0x080042ec                TIM_OC2PreloadConfig
                0x08004300                TIM_OC3PreloadConfig
                0x08004312                TIM_OC4PreloadConfig
                0x08004326                TIM_OC1FastConfig
                0x08004338                TIM_OC2FastConfig
                0x0800434c                TIM_OC3FastConfig
                0x0800435e                TIM_OC4FastConfig
                0x08004372                TIM_ClearOC1Ref
                0x08004384                TIM_ClearOC2Ref
                0x08004394                TIM_ClearOC3Ref
                0x080043a6                TIM_ClearOC4Ref
                0x080043b6                TIM_OC1PolarityConfig
                0x080043c8                TIM_OC1NPolarityConfig
                0x080043da                TIM_OC2PolarityConfig
                0x080043ee                TIM_OC2NPolarityConfig
                0x08004402                TIM_OC3PolarityConfig
                0x08004416                TIM_OC3NPolarityConfig
                0x0800442a                TIM_OC4PolarityConfig
                0x0800443e                TIM_CCxCmd
                0x08004460                TIM_CCxNCmd
                0x08004482                TIM_ICStructInit
                0x08004494                TIM_GetCapture1
                0x08004498                TIM_GetCapture2
                0x0800449c                TIM_GetCapture3
                0x080044a0                TIM_GetCapture4
                0x080044a4                TIM_SetIC1Prescaler
                0x080044bc                TIM_SetIC2Prescaler
                0x080044d6                TIM_SetIC3Prescaler
                0x080044ee                TIM_SetIC4Prescaler
                0x08004508                TIM_BDTRConfig
                0x0800452c                TIM_BDTRStructInit
                0x0800453e                TIM_CtrlPWMOutputs
                0x0800455e                TIM_SelectCOM
                0x08004578                TIM_CCPreloadControl
                0x08004592                TIM_ITConfig
                0x080045a8                TIM_GenerateEvent
                0x080045ac                TIM_GetFlagStatus
                0x080045b8                TIM_ClearFlag
                0x080045c0                TIM_GetITStatus
                0x080045d6                TIM_ClearITPendingBit
                0x080045de                TIM_DMAConfig
                0x080045e6                TIM_DMACmd
                0x080045fc                TIM_SelectCCDMA
                0x08004616                TIM_InternalClockConfig
                0x08004624                TIM_SelectInputTrigger
                0x08004636                TIM_ITRxExternalClockConfig
                0x0800464a                TIM_SelectOutputTrigger
                0x08004662                TIM_SelectSlaveMode
                0x0800467a                TIM_SelectMasterSlaveMode
                0x08004692                TIM_ETRConfig
                0x080046b0                TIM_ETRClockMode2Config
                0x080046c4                TIM_ETRClockMode1Config
                0x080046de                TIM_EncoderInterfaceConfig
                0x08004726                TIM_SelectHallSensor
                0x08004740                TIM_RemapConfig
                0x080047de                TIM_TIxExternalClockConfig
                0x0800480c                TIM_PWMIConfig
                0x08004878                TIM_ICInit
                0x08004948                TIM_DeInit
 .text          0x08004a9c       0x84 STM32F4xx_StdPeriph_Driver\src\stm32f4xx_syscfg.o
                0x08004a9c                SYSCFG_MemoryRemapConfig
                0x08004aa8                SYSCFG_EXTILineConfig
                0x08004adc                SYSCFG_ETH_MediaInterfaceConfig
                0x08004ae8                SYSCFG_CompensationCellCmd
                0x08004af4                SYSCFG_GetCompensationCellStatus
                0x08004b04                SYSCFG_DeInit
 .text          0x08004b20      0x394 STM32F4xx_StdPeriph_Driver\src\stm32f4xx_spi.o
                0x08004b20                SPI_Init
                0x08004b7a                I2S_Init
                0x08004c58                SPI_StructInit
                0x08004c72                I2S_StructInit
                0x08004c84                SPI_Cmd
                0x08004c9e                I2S_Cmd
                0x08004cb8                SPI_DataSizeConfig
                0x08004cd0                SPI_BiDirectionalLineConfig
                0x08004cec                SPI_NSSInternalSoftwareConfig
                0x08004d06                SPI_SSOutputCmd
                0x08004d20                SPI_TIModeCmd
                0x08004d3a                I2S_FullDuplexConfig
                0x08004d88                SPI_I2S_ReceiveData
                0x08004d8e                SPI_I2S_SendData
                0x08004d92                SPI_CalculateCRC
                0x08004dac                SPI_TransmitCRC
                0x08004db8                SPI_GetCRC
                0x08004dc8                SPI_GetCRCPolynomial
                0x08004dce                SPI_I2S_DMACmd
                0x08004de4                SPI_I2S_ITConfig
                0x08004e02                SPI_I2S_GetFlagStatus
                0x08004e0e                SPI_I2S_ClearFlag
                0x08004e16                SPI_I2S_GetITStatus
                0x08004e40                SPI_I2S_ClearITPendingBit
                0x08004e50                SPI_I2S_DeInit
 .text          0x08004eb4      0x4c0 STM32F4xx_StdPeriph_Driver\src\stm32f4xx_rcc.o
                0x08004eb4                RCC_DeInit
                0x08004ee8                RCC_HSEConfig
                0x08004ef8                RCC_AdjustHSICalibrationValue
                0x08004f0c                RCC_HSICmd
                0x08004f18                RCC_LSEConfig
                0x08004f38                RCC_LSICmd
                0x08004f44                RCC_PLLConfig
                0x08004f64                RCC_PLLCmd
                0x08004f70                RCC_PLLI2SConfig
                0x08004f84                RCC_PLLI2SCmd
                0x08004f90                RCC_ClockSecuritySystemCmd
                0x08004f9c                RCC_MCO1Config
                0x08004fb4                RCC_MCO2Config
                0x08004fcc                RCC_SYSCLKConfig
                0x08004fe0                RCC_GetSYSCLKSource
                0x08004ff0                RCC_HCLKConfig
                0x08005004                RCC_PCLK1Config
                0x08005018                RCC_PCLK2Config
                0x0800502c                RCC_GetClocksFreq
                0x080050dc                RCC_RTCCLKConfig
                0x0800510c                RCC_RTCCLKCmd
                0x08005118                RCC_BackupResetCmd
                0x08005124                RCC_I2SCLKConfig
                0x08005130                RCC_AHB1PeriphClockCmd
                0x0800514c                RCC_AHB2PeriphClockCmd
                0x08005168                RCC_AHB3PeriphClockCmd
                0x08005184                RCC_APB1PeriphClockCmd
                0x080051a0                RCC_APB2PeriphClockCmd
                0x080051bc                RCC_AHB1PeriphResetCmd
                0x080051d8                RCC_AHB2PeriphResetCmd
                0x080051f4                RCC_AHB3PeriphResetCmd
                0x08005210                RCC_APB1PeriphResetCmd
                0x0800522c                RCC_APB2PeriphResetCmd
                0x08005248                RCC_AHB1PeriphClockLPModeCmd
                0x08005264                RCC_AHB2PeriphClockLPModeCmd
                0x08005280                RCC_AHB3PeriphClockLPModeCmd
                0x0800529c                RCC_APB1PeriphClockLPModeCmd
                0x080052b8                RCC_APB2PeriphClockLPModeCmd
                0x080052d4                RCC_ITConfig
                0x080052f0                RCC_GetFlagStatus
                0x08005318                RCC_WaitForHSEStartUp
                0x08005344                RCC_ClearFlag
                0x08005354                RCC_GetITStatus
                0x08005368                RCC_ClearITPendingBit
 .text          0x08005374      0x208 STM32F4xx_StdPeriph_Driver\src\stm32f4xx_gpio.o
                0x08005374                GPIO_Init
                0x080053fc                GPIO_StructInit
                0x0800540e                GPIO_PinLockConfig
                0x08005434                GPIO_ReadInputDataBit
                0x08005440                GPIO_ReadInputData
                0x08005446                GPIO_ReadOutputDataBit
                0x08005452                GPIO_ReadOutputData
                0x08005458                GPIO_SetBits
                0x0800545c                GPIO_ResetBits
                0x08005460                GPIO_WriteBit
                0x0800546a                GPIO_Write
                0x0800546e                GPIO_ToggleBits
                0x08005478                GPIO_PinAFConfig
                0x080054a6                GPIO_DeInit
 .text          0x0800557c      0x488 STM32F4xx_StdPeriph_Driver\src\stm32f4xx_fsmc.o
                0x0800557c                FSMC_NORSRAMDeInit
                0x080055b4                FSMC_NORSRAMInit
                0x08005670                FSMC_NORSRAMStructInit
                0x080056be                FSMC_NORSRAMCmd
                0x080056ec                FSMC_NANDDeInit
                0x08005710                FSMC_NANDInit
                0x08005778                FSMC_NANDStructInit
                0x080057a2                FSMC_NANDCmd
                0x080057d8                FSMC_NANDECCCmd
                0x0800580c                FSMC_GetECC
                0x08005824                FSMC_PCCARDDeInit
                0x08005840                FSMC_PCCARDInit
                0x080058a8                FSMC_PCCARDStructInit
                0x080058d2                FSMC_PCCARDCmd
                0x080058f8                FSMC_ITConfig
                0x08005944                FSMC_GetFlagStatus
                0x08005970                FSMC_ClearFlag
                0x080059a0                FSMC_GetITStatus
                0x080059d4                FSMC_ClearITPendingBit
 .text          0x08005a04      0x108 STM32F4xx_StdPeriph_Driver\src\stm32f4xx_exti.o
                0x08005a04                EXTI_DeInit
                0x08005a20                EXTI_Init
                0x08005aa4                EXTI_StructInit
                0x08005ab2                EXTI_GenerateSWInterrupt
                0x08005ac4                EXTI_GetFlagStatus
                0x08005ad8                EXTI_ClearFlag
                0x08005ae4                EXTI_GetITStatus
                0x08005b00                EXTI_ClearITPendingBit
 .text          0x08005b0c       0xc4 STM32F4xx_StdPeriph_Driver\src\misc.o
                0x08005b0c                NVIC_PriorityGroupConfig
                0x08005b20                NVIC_Init
                0x08005b88                NVIC_SetVectorTable
                0x08005b9c                NVIC_SystemLPConfig
                0x08005bb8                SysTick_CLKSourceConfig
 .text          0x08005bd0      0x154 STM32F4-Discovery\stm32f4_discovery.o
                0x08005bd0                STM_EVAL_LEDOn
                0x08005be8                STM_EVAL_LEDOff
                0x08005c00                STM_EVAL_LEDToggle
                0x08005c20                STM_EVAL_PBGetState
                0x08005c40                STM_EVAL_LEDInit
                0x08005c84                STM_EVAL_PBInit
 .text          0x08005d24      0x42c RFID\rfid.o
                0x08005d24                CheckRFIDTagCode
                0x08005d68                STM_SSDRelay_On
                0x08005d78                STM_SSDRelay_Off
                0x08005d88                STM_EVAL_PA8Init
                0x08005dbc                NVIC_Configuration
                0x08005dde                USART3_Config
                0x08005ea8                RFIDInitMinimal
                0x08005ee8                USART3_IRQHandler
                0x08005f70                process_transponder
                0x08005fd0                vToggleLED4Task
                0x08005fee                vRFIDTransponderTask
 .text          0x08006150      0x318 FreeRTOS\timers.o
                0x08006150                pvTimerGetTimerID
                0x08006154                xTimerIsTimerActive
                0x0800616c                xTimerGenericCommand
                0x080061ec                xTimerCreate
                0x08006232                xTimerCreateTimerTask
 .text          0x08006468      0xbf8 FreeRTOS\tasks.o
                0x08006468                vTaskSuspendAll
                0x08006478                uxTaskGetNumberOfTasks
                0x08006484                vTaskMissedYield
                0x08006490                uxTaskGetTaskNumber
                0x08006498                vTaskSetTaskNumber
                0x0800649e                xTaskGetCurrentTaskHandle
                0x080064a8                xTaskGetSchedulerState
                0x080064c0                vTaskPriorityDisinherit
                0x08006508                vTaskPriorityInherit
                0x08006570                vTaskSetTimeOutState
                0x08006590                xTaskRemoveFromEventList
                0x080065f0                xTaskIsTaskSuspended
                0x0800661c                xTaskCheckForTimeOut
                0x08006684                xTaskGetTickCount
                0x0800669c                uxTaskPriorityGet
                0x080066b8                eTaskStateGet
                0x08006748                vTaskPlaceOnEventListRestricted
                0x08006778                vTaskPlaceOnEventList
                0x080067bc                vTaskSwitchContext
                0x08006848                vTaskIncrementTick
                0x080069b4                xTaskGetTickCountFromISR
                0x080069cc                xTaskResumeFromISR
                0x08006a48                xTaskResumeAll
                0x08006afc                vTaskList
                0x08006b94                vTaskResume
                0x08006bf8                vTaskSuspend
                0x08006c64                vTaskPrioritySet
                0x08006d00                vTaskDelay
                0x08006d34                vTaskDelayUntil
                0x08006da0                vTaskDelete
                0x08006e08                vTaskEndScheduler
                0x08006e7c                xTaskGenericCreate
                0x08007008                vTaskStartScheduler
 .text          0x08007060      0x67c FreeRTOS\queue.o
                0x08007060                ucQueueGetQueueNumber
                0x08007066                vQueueSetQueueNumber
                0x0800706c                ucQueueGetQueueType
                0x08007072                vQueueAddToRegistry
                0x08007100                vQueueWaitForMessageRestricted
                0x0800713c                xQueueIsQueueFullFromISR
                0x08007156                xQueueIsQueueEmptyFromISR
                0x0800716c                uxQueueMessagesWaitingFromISR
                0x0800717a                uxQueueMessagesWaiting
                0x08007194                vQueueDelete
                0x080071f8                xQueueReceiveFromISR
                0x08007262                xQueueGenericReceive
                0x0800738e                xQueueTakeMutexRecursive
                0x08007420                xQueueGenericSendFromISR
                0x08007494                xQueueGenericSend
                0x0800759a                xQueueGiveMutexRecursive
                0x080075ce                xQueueCreateMutex
                0x0800761c                xQueueGenericReset
                0x08007680                xQueueGenericCreate
                0x080076c2                xQueueCreateCountingSemaphore
 .text          0x080076dc      0x178 FreeRTOS\portable\port.o
                0x080076dc                pxPortInitialiseStack
                0x08007704                SVC_Handler
                0x08007730                vPortEndScheduler
                0x08007732                vPortYieldFromISR
                0x08007740                ulPortSetInterruptMask
                0x08007750                vPortEnterCritical
                0x08007764                vPortClearInterruptMask
                0x0800776a                vPortExitCritical
                0x0800777c                PendSV_Handler
                0x080077b8                vPortSetupTimerInterrupt
                0x080077ea                xPortStartScheduler
                0x0800782c                SysTick_Handler
 .text          0x08007854      0x110 FreeRTOS\portable\heap_2.o
                0x08007854                xPortGetFreeHeapSize
                0x08007860                vPortInitialiseBlocks
                0x08007862                vPortFree
                0x080078a4                pvPortMalloc
 .text          0x08007964       0x8a FreeRTOS\list.o
                0x08007964                vListInitialise
                0x0800797a                vListInitialiseItem
                0x08007980                vListInsertEnd
                0x0800799a                vListInsert
                0x080079cc                uxListRemove
 *fill*         0x080079ee        0x2 00
 .text          0x080079f0        0xc c:/program files (x86)/codesourcery/sourcery g++ lite/bin/../lib/gcc/arm-none-eabi/4.4.1/../../../../arm-none-eabi/lib/thumb2\libc.a(lib_a-errno.o)
                0x080079f0                __errno
 .text          0x080079fc       0x50 c:/program files (x86)/codesourcery/sourcery g++ lite/bin/../lib/gcc/arm-none-eabi/4.4.1/../../../../arm-none-eabi/lib/thumb2\libc.a(lib_a-init.o)
                0x080079fc                __libc_init_array
 .text          0x08007a4c       0x64 c:/program files (x86)/codesourcery/sourcery g++ lite/bin/../lib/gcc/arm-none-eabi/4.4.1/../../../../arm-none-eabi/lib/thumb2\libc.a(lib_a-memcmp.o)
                0x08007a4c                memcmp
 .text          0x08007ab0      0x190 c:/program files (x86)/codesourcery/sourcery g++ lite/bin/../lib/gcc/arm-none-eabi/4.4.1/../../../../arm-none-eabi/lib/thumb2\libc.a(lib_a-memcpy.o)
                0x08007ab0                memcpy
 .text          0x08007c40       0xd4 c:/program files (x86)/codesourcery/sourcery g++ lite/bin/../lib/gcc/arm-none-eabi/4.4.1/../../../../arm-none-eabi/lib/thumb2\libc.a(lib_a-memset.o)
                0x08007c40                memset
 .text          0x08007d14       0x94 c:/program files (x86)/codesourcery/sourcery g++ lite/bin/../lib/gcc/arm-none-eabi/4.4.1/../../../../arm-none-eabi/lib/thumb2\libc.a(lib_a-sprintf.o)
                0x08007d14                sprintf
                0x08007d64                _sprintf_r
 .text          0x08007da8       0x48 c:/program files (x86)/codesourcery/sourcery g++ lite/bin/../lib/gcc/arm-none-eabi/4.4.1/../../../../arm-none-eabi/lib/thumb2\libc.a(lib_a-strcat.o)
                0x08007da8                strcat
 .text          0x08007df0       0xbc c:/program files (x86)/codesourcery/sourcery g++ lite/bin/../lib/gcc/arm-none-eabi/4.4.1/../../../../arm-none-eabi/lib/thumb2\libc.a(lib_a-strcpy.o)
                0x08007df0                strcpy
 .text          0x08007eac       0x60 c:/program files (x86)/codesourcery/sourcery g++ lite/bin/../lib/gcc/arm-none-eabi/4.4.1/../../../../arm-none-eabi/lib/thumb2\libc.a(lib_a-strlen.o)
                0x08007eac                strlen
 .text          0x08007f0c       0x78 c:/program files (x86)/codesourcery/sourcery g++ lite/bin/../lib/gcc/arm-none-eabi/4.4.1/../../../../arm-none-eabi/lib/thumb2\libc.a(lib_a-strncpy.o)
                0x08007f0c                strncpy
 .text          0x08007f84     0x15a8 c:/program files (x86)/codesourcery/sourcery g++ lite/bin/../lib/gcc/arm-none-eabi/4.4.1/../../../../arm-none-eabi/lib/thumb2\libc.a(lib_a-svfprintf.o)
                0x080080a0                _svfprintf_r
 *fill*         0x0800952c        0x4 00
 .text          0x08009530      0xfb8 c:/program files (x86)/codesourcery/sourcery g++ lite/bin/../lib/gcc/arm-none-eabi/4.4.1/../../../../arm-none-eabi/lib/thumb2\libc.a(lib_a-dtoa.o)
                0x08009650                _dtoa_r
 .text          0x0800a4e8      0x268 c:/program files (x86)/codesourcery/sourcery g++ lite/bin/../lib/gcc/arm-none-eabi/4.4.1/../../../../arm-none-eabi/lib/thumb2\libc.a(lib_a-freer.o)
                0x0800a4e8                _malloc_trim_r
                0x0800a590                _free_r
 .text          0x0800a750       0x74 c:/program files (x86)/codesourcery/sourcery g++ lite/bin/../lib/gcc/arm-none-eabi/4.4.1/../../../../arm-none-eabi/lib/thumb2\libc.a(lib_a-locale.o)
                0x0800a750                __locale_charset
                0x0800a75c                _localeconv_r
                0x0800a764                localeconv
                0x0800a76c                _setlocale_r
                0x0800a7b4                setlocale
 .text          0x0800a7c4       0x20 c:/program files (x86)/codesourcery/sourcery g++ lite/bin/../lib/gcc/arm-none-eabi/4.4.1/../../../../arm-none-eabi/lib/thumb2\libc.a(lib_a-malloc.o)
                0x0800a7c4                free
                0x0800a7d4                malloc
 .text          0x0800a7e4      0x5a4 c:/program files (x86)/codesourcery/sourcery g++ lite/bin/../lib/gcc/arm-none-eabi/4.4.1/../../../../arm-none-eabi/lib/thumb2\libc.a(lib_a-mallocr.o)
                0x0800a7e4                _malloc_r
 .text          0x0800ad88       0x74 c:/program files (x86)/codesourcery/sourcery g++ lite/bin/../lib/gcc/arm-none-eabi/4.4.1/../../../../arm-none-eabi/lib/thumb2\libc.a(lib_a-memchr.o)
                0x0800ad88                memchr
 .text          0x0800adfc       0xb8 c:/program files (x86)/codesourcery/sourcery g++ lite/bin/../lib/gcc/arm-none-eabi/4.4.1/../../../../arm-none-eabi/lib/thumb2\libc.a(lib_a-memmove.o)
                0x0800adfc                memmove
 .text          0x0800aeb4        0x8 c:/program files (x86)/codesourcery/sourcery g++ lite/bin/../lib/gcc/arm-none-eabi/4.4.1/../../../../arm-none-eabi/lib/thumb2\libc.a(lib_a-mlock.o)
                0x0800aeb4                __malloc_lock
                0x0800aeb8                __malloc_unlock
 .text          0x0800aebc      0x958 c:/program files (x86)/codesourcery/sourcery g++ lite/bin/../lib/gcc/arm-none-eabi/4.4.1/../../../../arm-none-eabi/lib/thumb2\libc.a(lib_a-mprec.o)
                0x0800aebc                __hi0bits
                0x0800aefc                __lo0bits
                0x0800af60                __mcmp
                0x0800afa0                __ulp
                0x0800afec                __b2d
                0x0800b094                __ratio
                0x0800b0f4                _mprec_log10
                0x0800b12c                __copybits
                0x0800b17c                __any_on
                0x0800b1d4                _Bfree
                0x0800b20c                _Balloc
                0x0800b278                __d2b
                0x0800b348                __mdiff
                0x0800b440                __lshift
                0x0800b4fc                __multiply
                0x0800b630                __i2b
                0x0800b644                __multadd
                0x0800b6cc                __pow5mult
                0x0800b778                __s2b
 .text          0x0800b814      0x3b4 c:/program files (x86)/codesourcery/sourcery g++ lite/bin/../lib/gcc/arm-none-eabi/4.4.1/../../../../arm-none-eabi/lib/thumb2\libc.a(lib_a-reallocr.o)
                0x0800b814                _realloc_r
 .text          0x0800bbc8       0x24 c:/program files (x86)/codesourcery/sourcery g++ lite/bin/../lib/gcc/arm-none-eabi/4.4.1/../../../../arm-none-eabi/lib/thumb2\libc.a(lib_a-s_isinfd.o)
                0x0800bbc8                __isinfd
 .text          0x0800bbec       0x1c c:/program files (x86)/codesourcery/sourcery g++ lite/bin/../lib/gcc/arm-none-eabi/4.4.1/../../../../arm-none-eabi/lib/thumb2\libc.a(lib_a-s_isnand.o)
                0x0800bbec                __isnand
 .text          0x0800bc08       0x28 c:/program files (x86)/codesourcery/sourcery g++ lite/bin/../lib/gcc/arm-none-eabi/4.4.1/../../../../arm-none-eabi/lib/thumb2\libc.a(lib_a-sbrkr.o)
                0x0800bc08                _sbrk_r
 .text          0x0800bc30      0x1dc c:/program files (x86)/codesourcery/sourcery g++ lite/bin/../lib/gcc/arm-none-eabi/4.4.1/../../../../arm-none-eabi/lib/thumb2\libc.a(lib_a-strcmp.o)
                0x0800bc30                strcmp
 .text          0x0800be0c       0x5c c:/program files (x86)/codesourcery/sourcery g++ lite/bin/../lib/gcc/arm-none-eabi/4.4.1/../../../../arm-none-eabi/lib/thumb2\libc.a(lib_a-callocr.o)
                0x0800be0c                _calloc_r
 .text          0x0800be68      0x278 c:/program files (x86)/codesourcery/sourcery g++ lite/bin/../lib/gcc/arm-none-eabi/4.4.1/thumb2\libgcc.a(_udivsi3.o)
                0x0800be68                __aeabi_uidiv
                0x0800be68                __udivsi3
                0x0800c0c4                __aeabi_uidivmod
 .text          0x0800c0e0        0x4 c:/program files (x86)/codesourcery/sourcery g++ lite/bin/../lib/gcc/arm-none-eabi/4.4.1/thumb2\libgcc.a(_dvmd_tls.o)
                0x0800c0e0                __aeabi_idiv0
                0x0800c0e0                __aeabi_ldiv0
 .text          0x0800c0e4      0x370 c:/program files (x86)/codesourcery/sourcery g++ lite/bin/../lib/gcc/arm-none-eabi/4.4.1/thumb2\libgcc.a(_arm_addsubdf3.o)
                0x0800c0e4                __aeabi_drsub
                0x0800c0ec                __aeabi_dsub
                0x0800c0ec                __subdf3
                0x0800c0f0                __aeabi_dadd
                0x0800c0f0                __adddf3
                0x0800c368                __floatunsidf
                0x0800c368                __aeabi_ui2d
                0x0800c388                __floatsidf
                0x0800c388                __aeabi_i2d
                0x0800c3ac                __aeabi_f2d
                0x0800c3ac                __extendsfdf2
                0x0800c3e8                __floatundidf
                0x0800c3e8                __aeabi_ul2d
                0x0800c3f8                __floatdidf
                0x0800c3f8                __aeabi_l2d
 .text          0x0800c454      0x424 c:/program files (x86)/codesourcery/sourcery g++ lite/bin/../lib/gcc/arm-none-eabi/4.4.1/thumb2\libgcc.a(_arm_muldivdf3.o)
                0x0800c454                __aeabi_dmul
                0x0800c454                __muldf3
                0x0800c6a8                __divdf3
                0x0800c6a8                __aeabi_ddiv
 .text          0x0800c878      0x110 c:/program files (x86)/codesourcery/sourcery g++ lite/bin/../lib/gcc/arm-none-eabi/4.4.1/thumb2\libgcc.a(_arm_cmpdf2.o)
                0x0800c878                __gtdf2
                0x0800c878                __gedf2
                0x0800c880                __ltdf2
                0x0800c880                __ledf2
                0x0800c888                __nedf2
                0x0800c888                __eqdf2
                0x0800c888                __cmpdf2
                0x0800c904                __aeabi_cdrcmple
                0x0800c914                __aeabi_cdcmpeq
                0x0800c914                __aeabi_cdcmple
                0x0800c924                __aeabi_dcmpeq
                0x0800c938                __aeabi_dcmplt
                0x0800c94c                __aeabi_dcmple
                0x0800c960                __aeabi_dcmpge
                0x0800c974                __aeabi_dcmpgt
 .text          0x0800c988       0x50 c:/program files (x86)/codesourcery/sourcery g++ lite/bin/../lib/gcc/arm-none-eabi/4.4.1/thumb2\libgcc.a(_arm_fixdfsi.o)
                0x0800c988                __aeabi_d2iz
                0x0800c988                __fixdfsi
 .text          0x0800c9d8      0x21c c:/program files (x86)/codesourcery/sourcery g++ lite/bin/../lib/gcc/arm-none-eabi/4.4.1/thumb2\libgcc.a(_arm_addsubsf3.o)
                0x0800c9d8                __aeabi_frsub
                0x0800c9e0                __subsf3
                0x0800c9e0                __aeabi_fsub
                0x0800c9e4                __aeabi_fadd
                0x0800c9e4                __addsf3
                0x0800cb44                __aeabi_ui2f
                0x0800cb44                __floatunsisf
                0x0800cb4c                __aeabi_i2f
                0x0800cb4c                __floatsisf
                0x0800cb68                __aeabi_ul2f
                0x0800cb68                __floatundisf
                0x0800cb78                __aeabi_l2f
                0x0800cb78                __floatdisf
 .text          0x0800cbf4       0x4c c:/program files (x86)/codesourcery/sourcery g++ lite/bin/../lib/gcc/arm-none-eabi/4.4.1/thumb2\libgcc.a(_arm_fixsfsi.o)
                0x0800cbf4                __aeabi_f2iz
                0x0800cbf4                __fixsfsi
 .text          0x0800cc40       0x2c c:/program files (x86)/codesourcery/sourcery g++ lite/bin/../lib/gcc/arm-none-eabi/4.4.1/thumb2\libgcc.a(_aeabi_uldivmod.o)
                0x0800cc40                __aeabi_uldivmod
 .text          0x0800cc6c       0x58 c:/program files (x86)/codesourcery/sourcery g++ lite/bin/../lib/gcc/arm-none-eabi/4.4.1/thumb2\libgcc.a(bpabi.o)
                0x0800cc6c                __gnu_uldivmod_helper
                0x0800cc98                __gnu_ldivmod_helper
 .text          0x0800ccc4      0x364 c:/program files (x86)/codesourcery/sourcery g++ lite/bin/../lib/gcc/arm-none-eabi/4.4.1/thumb2\libgcc.a(_divdi3.o)
                0x0800ccc4                __divdi3
 .text          0x0800d028      0x300 c:/program files (x86)/codesourcery/sourcery g++ lite/bin/../lib/gcc/arm-none-eabi/4.4.1/thumb2\libgcc.a(_udivdi3.o)
                0x0800d028                __udivdi3
 *(.text*)
 .text.Reset_Handler
                0x0800d328       0x48 startup\startup_stm32f4xx.o
                0x0800d328                Reset_Handler
 .text.Default_Handler
                0x0800d370        0x2 startup\startup_stm32f4xx.o
                0x0800d370                RTC_Alarm_IRQHandler
                0x0800d370                HASH_RNG_IRQHandler
                0x0800d370                EXTI2_IRQHandler
                0x0800d370                TIM8_CC_IRQHandler
                0x0800d370                TIM1_CC_IRQHandler
                0x0800d370                DMA2_Stream5_IRQHandler
                0x0800d370                DMA1_Stream5_IRQHandler
                0x0800d370                PVD_IRQHandler
                0x0800d370                SDIO_IRQHandler
                0x0800d370                TAMP_STAMP_IRQHandler
                0x0800d370                CAN2_RX1_IRQHandler
                0x0800d370                EXTI3_IRQHandler
                0x0800d370                TIM8_TRG_COM_TIM14_IRQHandler
                0x0800d370                TIM1_UP_TIM10_IRQHandler
                0x0800d370                TIM8_UP_TIM13_IRQHandler
                0x0800d370                I2C3_ER_IRQHandler
                0x0800d370                EXTI0_IRQHandler
                0x0800d370                I2C2_EV_IRQHandler
                0x0800d370                DMA1_Stream2_IRQHandler
                0x0800d370                CAN1_RX0_IRQHandler
                0x0800d370                FPU_IRQHandler
                0x0800d370                OTG_HS_WKUP_IRQHandler
                0x0800d370                CAN2_SCE_IRQHandler
                0x0800d370                DMA2_Stream2_IRQHandler
                0x0800d370                SPI1_IRQHandler
                0x0800d370                TIM6_DAC_IRQHandler
                0x0800d370                TIM1_BRK_TIM9_IRQHandler
                0x0800d370                DCMI_IRQHandler
                0x0800d370                CAN2_RX0_IRQHandler
                0x0800d370                DMA2_Stream3_IRQHandler
                0x0800d370                USART6_IRQHandler
                0x0800d370                CRYP_IRQHandler
                0x0800d370                CAN1_RX1_IRQHandler
                0x0800d370                UART5_IRQHandler
                0x0800d370                DMA2_Stream0_IRQHandler
                0x0800d370                TIM4_IRQHandler
                0x0800d370                I2C1_EV_IRQHandler
                0x0800d370                DMA1_Stream6_IRQHandler
                0x0800d370                DMA1_Stream1_IRQHandler
                0x0800d370                UART4_IRQHandler
                0x0800d370                TIM3_IRQHandler
                0x0800d370                RCC_IRQHandler
                0x0800d370                TIM8_BRK_TIM12_IRQHandler
                0x0800d370                Default_Handler
                0x0800d370                EXTI15_10_IRQHandler
                0x0800d370                ADC_IRQHandler
                0x0800d370                DMA1_Stream7_IRQHandler
                0x0800d370                TIM7_IRQHandler
                0x0800d370                CAN2_TX_IRQHandler
                0x0800d370                TIM5_IRQHandler
                0x0800d370                DMA2_Stream7_IRQHandler
                0x0800d370                I2C3_EV_IRQHandler
                0x0800d370                EXTI9_5_IRQHandler
                0x0800d370                RTC_WKUP_IRQHandler
                0x0800d370                ETH_WKUP_IRQHandler
                0x0800d370                SPI2_IRQHandler
                0x0800d370                OTG_HS_EP1_IN_IRQHandler
                0x0800d370                DMA1_Stream0_IRQHandler
                0x0800d370                CAN1_TX_IRQHandler
                0x0800d370                EXTI4_IRQHandler
                0x0800d370                FSMC_IRQHandler
                0x0800d370                ETH_IRQHandler
                0x0800d370                OTG_HS_EP1_OUT_IRQHandler
                0x0800d370                WWDG_IRQHandler
                0x0800d370                TIM2_IRQHandler
                0x0800d370                OTG_FS_WKUP_IRQHandler
                0x0800d370                TIM1_TRG_COM_TIM11_IRQHandler
                0x0800d370                OTG_HS_IRQHandler
                0x0800d370                EXTI1_IRQHandler
                0x0800d370                USART2_IRQHandler
                0x0800d370                I2C2_ER_IRQHandler
                0x0800d370                DMA2_Stream1_IRQHandler
                0x0800d370                CAN1_SCE_IRQHandler
                0x0800d370                FLASH_IRQHandler
                0x0800d370                DMA2_Stream4_IRQHandler
                0x0800d370                USART1_IRQHandler
                0x0800d370                OTG_FS_IRQHandler
                0x0800d370                SPI3_IRQHandler
                0x0800d370                DMA1_Stream4_IRQHandler
                0x0800d370                I2C1_ER_IRQHandler
                0x0800d370                DMA2_Stream6_IRQHandler
                0x0800d370                DMA1_Stream3_IRQHandler
 *(.rodata)
 *fill*         0x0800d372        0x2 00
 .rodata        0x0800d374    0x4c7c4 User\main.o
                0x0800d474                pic_clock3_png
                0x0800f094                pic_sett3_png
                0x08010cb4                pic_switch3_png
                0x080128d4                pic_i_png
                0x08014514                ASCII16x24
                0x08015cd4                ASCII12x12
                0x08016d40                pic_arrL3_png
                0x08018960                pic_auto_png
                0x0801a580                pic_on_png
                0x0801c1a0                pic_off_png
                0x0801de38                msg_INFO_TITLE
                0x0801de44                msg_INFO
                0x0801de60                msg_YEAR
                0x0801de68                msg_VERSION
                0x0801de90                msg_SetTime
                0x0801dea0                msg_URA
                0x0801dea8                msg_MINUTE
                0x0801deb0                pic_arrow_up_60x60_jpg
                0x0801fad0                pic_arrow_down_60x60_jpg
                0x080216f0                pic_cancel_60x60_jpg
                0x08023310                pic_ok_60x60_jpg
                0x08024f6c                msg_OK
                0x08024f70                msg_CANCEL
                0x08024f78                pic_facebook_60x60_jpg
                0x08026b98                pic_return_60x60_jpg
                0x080287b8                pic_info1_60x60_jpg
                0x0802a3d8                pic_clock3_60x60_jpg
                0x0802bff8                pic_sett4_60x60_jpg
                0x0802dc18                pic_hiska240x180_jpg
                0x08042d98                pic_jalovec240x180_jpg
                0x08057f18                pic_a_png
 .rodata        0x08059b38       0x30 STM32F4-Discovery\stm32f4_discovery.o
                0x08059b38                GPIO_PIN
                0x08059b40                BUTTON_PIN
                0x08059b44                GPIO_CLK
                0x08059b54                BUTTON_CLK
                0x08059b58                BUTTON_PORT_SOURCE
                0x08059b5c                BUTTON_PIN_SOURCE
                0x08059b60                BUTTON_EXTI_LINE
                0x08059b64                BUTTON_IRQn
 .rodata        0x08059b68      0x2c8 RFID\rfid.o
                0x08059b68                RFIDValidCodes
                0x08059c9c                RFIDUserNames
 .rodata        0x08059e30       0x14 FreeRTOS\tasks.o
 .rodata        0x08059e44       0x20 c:/program files (x86)/codesourcery/sourcery g++ lite/bin/../lib/gcc/arm-none-eabi/4.4.1/../../../../arm-none-eabi/lib/thumb2\libc.a(lib_a-svfprintf.o)
 .rodata        0x08059e64       0x34 c:/program files (x86)/codesourcery/sourcery g++ lite/bin/../lib/gcc/arm-none-eabi/4.4.1/../../../../arm-none-eabi/lib/thumb2\libc.a(lib_a-locale.o)
 .rodata        0x08059e98      0x128 c:/program files (x86)/codesourcery/sourcery g++ lite/bin/../lib/gcc/arm-none-eabi/4.4.1/../../../../arm-none-eabi/lib/thumb2\libc.a(lib_a-mprec.o)
                0x08059e98                __mprec_tens
                0x08059f70                __mprec_bigtens
                0x08059f98                __mprec_tinytens
 *(.rodata*)
 .rodata.str1.1
                0x08059fc0      0x124 User\main.o
 .rodata.str1.1
                0x0805a0e4        0x5 RFID\rfid.o
 .rodata.str1.1
                0x0805a0e9        0x8 FreeRTOS\timers.o
 .rodata.str1.1
                0x0805a0f1       0x17 FreeRTOS\tasks.o
                                 0x1a (size before relaxing)
 .rodata.str1.4
                0x0805a108        0x2 c:/program files (x86)/codesourcery/sourcery g++ lite/bin/../lib/gcc/arm-none-eabi/4.4.1/../../../../arm-none-eabi/lib/thumb2\libc.a(lib_a-impure.o)
                                  0x4 (size before relaxing)
 *fill*         0x0805a10a        0x2 00
 .rodata.str1.4
                0x0805a10c       0x42 c:/program files (x86)/codesourcery/sourcery g++ lite/bin/../lib/gcc/arm-none-eabi/4.4.1/../../../../arm-none-eabi/lib/thumb2\libc.a(lib_a-svfprintf.o)
                                 0x44 (size before relaxing)
 *fill*         0x0805a14e        0x2 00
 .rodata.str1.4
                0x0805a150       0x10 c:/program files (x86)/codesourcery/sourcery g++ lite/bin/../lib/gcc/arm-none-eabi/4.4.1/../../../../arm-none-eabi/lib/thumb2\libc.a(lib_a-dtoa.o)
                                 0x14 (size before relaxing)
 .rodata.str1.4
                0x0805a160       0x10 c:/program files (x86)/codesourcery/sourcery g++ lite/bin/../lib/gcc/arm-none-eabi/4.4.1/../../../../arm-none-eabi/lib/thumb2\libc.a(lib_a-locale.o)
                                 0x18 (size before relaxing)
 *(.glue_7)
 .glue_7        0x00000000        0x0 linker stubs
 *(.glue_7t)
 .glue_7t       0x00000000        0x0 linker stubs
 *(.eh_frame)
 *(.init)
 .init          0x0805a170        0x4 c:/program files (x86)/codesourcery/sourcery g++ lite/bin/../lib/gcc/arm-none-eabi/4.4.1/thumb2/crti.o
                0x0805a170                _init
 .init          0x0805a174        0x8 c:/program files (x86)/codesourcery/sourcery g++ lite/bin/../lib/gcc/arm-none-eabi/4.4.1/thumb2/crtn.o
 *(.fini)
 .fini          0x0805a17c        0x4 c:/program files (x86)/codesourcery/sourcery g++ lite/bin/../lib/gcc/arm-none-eabi/4.4.1/thumb2/crti.o
                0x0805a17c                _fini
 .fini          0x0805a180        0x8 c:/program files (x86)/codesourcery/sourcery g++ lite/bin/../lib/gcc/arm-none-eabi/4.4.1/thumb2/crtn.o
                0x0805a188                . = ALIGN (0x4)
                0x0805a188                _etext = .

.vfp11_veneer   0x0805a188        0x0
 .vfp11_veneer  0x00000000        0x0 linker stubs

.v4_bx          0x0805a188        0x0
 .v4_bx         0x00000000        0x0 linker stubs

.ARM.extab
 *(.ARM.extab* .gnu.linkonce.armextab.*)

.ARM            0x0805a188        0x8
                0x0805a188                __exidx_start = .
 *(.ARM.exidx*)
 .ARM.exidx     0x0805a188        0x8 c:/program files (x86)/codesourcery/sourcery g++ lite/bin/../lib/gcc/arm-none-eabi/4.4.1/thumb2\libgcc.a(_divdi3.o)
 .ARM.exidx     0x0805a190        0x0 c:/program files (x86)/codesourcery/sourcery g++ lite/bin/../lib/gcc/arm-none-eabi/4.4.1/thumb2\libgcc.a(_udivdi3.o)
                                  0x8 (size before relaxing)
                0x0805a190                __exidx_end = .

.preinit_array  0x0805a190        0x0
                0x0805a190                PROVIDE (__preinit_array_start, .)
 *(.preinit_array*)
                0x0805a190                PROVIDE (__preinit_array_end, .)

.init_array     0x0805a190        0x4
                0x0805a190                PROVIDE (__init_array_start, .)
 *(SORT(.init_array.*))
 *(.init_array*)
 .init_array    0x0805a190        0x4 c:/program files (x86)/codesourcery/sourcery g++ lite/bin/../lib/gcc/arm-none-eabi/4.4.1/thumb2/crtbegin.o
                0x0805a194                PROVIDE (__init_array_end, .)

.fini_array     0x0805a194        0x4
                0x0805a194                PROVIDE (__fini_array_start, .)
 *(.fini_array*)
 .fini_array    0x0805a194        0x4 c:/program files (x86)/codesourcery/sourcery g++ lite/bin/../lib/gcc/arm-none-eabi/4.4.1/thumb2/crtbegin.o
 *(SORT(.fini_array.*))
                0x0805a198                PROVIDE (__fini_array_end, .)
                0x0805a198                _sidata = .

.data           0x20000000      0x5f0 load address 0x0805a198
                0x20000000                . = ALIGN (0x4)
                0x20000000                _sdata = .
 *(.data)
 .data          0x20000000       0x14 User\system_stm32f4xx.o
                0x20000000                SystemCoreClock
                0x20000004                AHBPrescTable
 *fill*         0x20000014        0x4 00
 .data          0x20000018       0xa0 User\main.o
                0x20000018                BackColor
                0x2000001a                asciisize
                0x2000001c                pFsRelays
                0x2000003c                piRelays
                0x20000050                iRomAddress
                0x20000078                selectedRelay
                0x2000007c                matrix
                0x20000098                xDrawSetTimeScreen
                0x2000009c                DisplaySample
                0x200000b4                ab
 .data          0x200000b8       0x10 STM32F4xx_StdPeriph_Driver\src\stm32f4xx_rcc.o
 .data          0x200000c8       0x14 STM32F4-Discovery\stm32f4_discovery.o
                0x200000c8                GPIO_PORT
                0x200000d8                BUTTON_PORT
 .data          0x200000dc        0x4 RFID\rfid.o
                0x200000dc                userID
 .data          0x200000e0        0x4 FreeRTOS\tasks.o
 .data          0x200000e4        0x4 FreeRTOS\portable\port.o
 .data          0x200000e8        0x4 FreeRTOS\portable\heap_2.o
 .data          0x200000ec       0xf4 c:/program files (x86)/codesourcery/sourcery g++ lite/bin/../lib/gcc/arm-none-eabi/4.4.1/../../../../arm-none-eabi/lib/thumb2\libc.a(lib_a-impure.o)
                0x200000ec                _impure_ptr
 .data          0x200001e0      0x410 c:/program files (x86)/codesourcery/sourcery g++ lite/bin/../lib/gcc/arm-none-eabi/4.4.1/../../../../arm-none-eabi/lib/thumb2\libc.a(lib_a-mallocr.o)
                0x200001e0                __malloc_av_
                0x200005e8                __malloc_sbrk_base
                0x200005ec                __malloc_trim_threshold
 *(.data*)
                0x200005f0                . = ALIGN (0x4)
                0x200005f0                _edata = .

.jcr            0x200005f0        0x0 load address 0x0805a788
 .jcr           0x200005f0        0x0 c:/program files (x86)/codesourcery/sourcery g++ lite/bin/../lib/gcc/arm-none-eabi/4.4.1/thumb2/crtbegin.o
                0x200005f0                . = ALIGN (0x4)

.bss            0x200005f0    0x12fdc load address 0x0805a788
                0x200005f0                _sbss = .
                0x200005f0                __bss_start__ = _sbss
 *(.bss)
 .bss           0x200005f0        0x1 c:/program files (x86)/codesourcery/sourcery g++ lite/bin/../lib/gcc/arm-none-eabi/4.4.1/thumb2/crtbegin.o
 *fill*         0x200005f1        0x3 00
 .bss           0x200005f4        0x4 Utils\syscalls-stubs.o
 .bss           0x200005f8        0x6 Utils\retarget.o
 *fill*         0x200005fe        0x2 00
 .bss           0x20000600       0x48 User\main.o
                0x20000600                TextColor
                0x2000061a                fSystemTask
                0x2000061c                pStatusRelays
                0x20000630                TimerPeriod
                0x20000632                Channel3Pulse
 .bss           0x20000648       0x10 RFID\rfid.o
                0x2000064c                nStartReadRFIDTransponder
                0x2000064d                nLFReceived
                0x2000064e                nCRReceived
                0x20000650                nDataCount
 .bss           0x20000658       0x38 FreeRTOS\timers.o
 .bss           0x20000690      0x150 FreeRTOS\tasks.o
                0x2000069c                pxCurrentTCB
 .bss           0x200007e0    0x12c18 FreeRTOS\portable\heap_2.o
 .bss           0x200133f8       0x34 c:/program files (x86)/codesourcery/sourcery g++ lite/bin/../lib/gcc/arm-none-eabi/4.4.1/../../../../arm-none-eabi/lib/thumb2\libc.a(lib_a-mallocr.o)
                0x200133f8                __malloc_top_pad
                0x200133fc                __malloc_current_mallinfo
                0x20013424                __malloc_max_sbrked_mem
                0x20013428                __malloc_max_total_mem
 *(.bss*)
 *(COMMON)
 COMMON         0x2001342c      0x140 User\main.o
                0x2001342c                faBoilerRelay
                0x20013434                xTimerFunctionHandle
                0x20013438                b
                0x2001343c                TIM_TimeBaseStructure
                0x20013448                pTime_data
                0x20013488                xSystemFunctionHandle
                0x2001348c                xLCDScreenState
                0x20013490                display
                0x20013498                switchTimeFormat
                0x2001349c                faBathroomRelay
                0x200134a4                halfsec_elapsed
                0x200134a8                xScreenSaverHandle
                0x200134ac                faGroundRelay
                0x200134b4                sec_elapsed
                0x200134b8                TIM_OCInitStructure
                0x200134cc                ScreenSample
                0x200134e4                time_temp
                0x200134f8                faSensorAlive
                0x20013500                time
                0x20013514                xLCDQueue
                0x20013518                GPIO_InitStructure
                0x20013520                iTemperature
                0x20013534                faResetRelay
                0x2001353c                faAtticRelay
                0x20013544                faHeatRelay
                0x2001354c                a
                0x20013550                xRefreshHandle
                0x20013554                faSystemConditions
                0x2001355c                faFurnaceRelay
                0x20013564                faFloorRelay
 COMMON         0x2001356c       0x1c RFID\rfid.o
                0x2001356c                RFIDTagCode
 COMMON         0x20013588       0x40 FreeRTOS\queue.o
                0x20013588                xQueueRegistry
 COMMON         0x200135c8        0x4 c:/program files (x86)/codesourcery/sourcery g++ lite/bin/../lib/gcc/arm-none-eabi/4.4.1/../../../../arm-none-eabi/lib/thumb2\libc.a(lib_a-reent.o)
                0x200135c8                errno
                0x200135cc                . = ALIGN (0x4)
                0x200135cc                _ebss = .
                0x200135cc                __bss_end__ = _ebss

._user_heap_stack
                0x200135cc      0x400 load address 0x0806d764
                0x200135cc                . = ALIGN (0x4)
                0x200135cc                PROVIDE (end, .)
                0x200135cc                PROVIDE (_end, .)
                0x200135cc                . = (. + _Min_Heap_Size)
                0x200139cc                . = (. + _Min_Stack_Size)
 *fill*         0x200135cc      0x400 00
                0x200139cc                . = ALIGN (0x4)

.memory_b1_text
 *(.mb1text)
 *(.mb1text*)
 *(.mb1rodata)
 *(.mb1rodata*)

/DISCARD/
 libc.a(*)
 libm.a(*)
 libgcc.a(*)

.ARM.attributes
                0x00000000       0x2d
 *(.ARM.attributes)
 .ARM.attributes
                0x00000000       0x19 c:/program files (x86)/codesourcery/sourcery g++ lite/bin/../lib/gcc/arm-none-eabi/4.4.1/thumb2/crti.o
 .ARM.attributes
                0x00000019       0x29 c:/program files (x86)/codesourcery/sourcery g++ lite/bin/../lib/gcc/arm-none-eabi/4.4.1/thumb2/crtbegin.o
 .ARM.attributes
                0x00000042       0x21 startup\startup_stm32f4xx.o
 .ARM.attributes
                0x00000063       0x31 Utils\timetemp.o
 .ARM.attributes
                0x00000094       0x31 Utils\syscalls-stubs.o
 .ARM.attributes
                0x000000c5       0x31 Utils\retarget.o
 .ARM.attributes
                0x000000f6       0x31 Utils\itoa.o
 .ARM.attributes
                0x00000127       0x31 User\system_stm32f4xx.o
 .ARM.attributes
                0x00000158       0x31 User\stm32f4xx_it.o
 .ARM.attributes
                0x00000189       0x31 User\main.o
 .ARM.attributes
                0x000001ba       0x31 STM32F4xx_StdPeriph_Driver\src\stm32f4xx_wwdg.o
 .ARM.attributes
                0x000001eb       0x31 STM32F4xx_StdPeriph_Driver\src\stm32f4xx_usart.o
 .ARM.attributes
                0x0000021c       0x31 STM32F4xx_StdPeriph_Driver\src\stm32f4xx_tim.o
 .ARM.attributes
                0x0000024d       0x31 STM32F4xx_StdPeriph_Driver\src\stm32f4xx_syscfg.o
 .ARM.attributes
                0x0000027e       0x31 STM32F4xx_StdPeriph_Driver\src\stm32f4xx_spi.o
 .ARM.attributes
                0x000002af       0x31 STM32F4xx_StdPeriph_Driver\src\stm32f4xx_sdio.o
 .ARM.attributes
                0x000002e0       0x31 STM32F4xx_StdPeriph_Driver\src\stm32f4xx_rtc.o
 .ARM.attributes
                0x00000311       0x31 STM32F4xx_StdPeriph_Driver\src\stm32f4xx_rng.o
 .ARM.attributes
                0x00000342       0x31 STM32F4xx_StdPeriph_Driver\src\stm32f4xx_rcc.o
 .ARM.attributes
                0x00000373       0x31 STM32F4xx_StdPeriph_Driver\src\stm32f4xx_pwr.o
 .ARM.attributes
                0x000003a4       0x31 STM32F4xx_StdPeriph_Driver\src\stm32f4xx_iwdg.o
 .ARM.attributes
                0x000003d5       0x31 STM32F4xx_StdPeriph_Driver\src\stm32f4xx_i2c.o
 .ARM.attributes
                0x00000406       0x31 STM32F4xx_StdPeriph_Driver\src\stm32f4xx_hash_sha1.o
 .ARM.attributes
                0x00000437       0x31 STM32F4xx_StdPeriph_Driver\src\stm32f4xx_hash_md5.o
 .ARM.attributes
                0x00000468       0x31 STM32F4xx_StdPeriph_Driver\src\stm32f4xx_hash.o
 .ARM.attributes
                0x00000499       0x31 STM32F4xx_StdPeriph_Driver\src\stm32f4xx_gpio.o
 .ARM.attributes
                0x000004ca       0x31 STM32F4xx_StdPeriph_Driver\src\stm32f4xx_fsmc.o
 .ARM.attributes
                0x000004fb       0x31 STM32F4xx_StdPeriph_Driver\src\stm32f4xx_flash.o
 .ARM.attributes
                0x0000052c       0x31 STM32F4xx_StdPeriph_Driver\src\stm32f4xx_exti.o
 .ARM.attributes
                0x0000055d       0x31 STM32F4xx_StdPeriph_Driver\src\stm32f4xx_dma.o
 .ARM.attributes
                0x0000058e       0x31 STM32F4xx_StdPeriph_Driver\src\stm32f4xx_dcmi.o
 .ARM.attributes
                0x000005bf       0x31 STM32F4xx_StdPeriph_Driver\src\stm32f4xx_dbgmcu.o
 .ARM.attributes
                0x000005f0       0x31 STM32F4xx_StdPeriph_Driver\src\stm32f4xx_dac.o
 .ARM.attributes
                0x00000621       0x31 STM32F4xx_StdPeriph_Driver\src\stm32f4xx_cryp_tdes.o
 .ARM.attributes
                0x00000652       0x31 STM32F4xx_StdPeriph_Driver\src\stm32f4xx_cryp_des.o
 .ARM.attributes
                0x00000683       0x31 STM32F4xx_StdPeriph_Driver\src\stm32f4xx_cryp_aes.o
 .ARM.attributes
                0x000006b4       0x31 STM32F4xx_StdPeriph_Driver\src\stm32f4xx_cryp.o
 .ARM.attributes
                0x000006e5       0x31 STM32F4xx_StdPeriph_Driver\src\stm32f4xx_crc.o
 .ARM.attributes
                0x00000716       0x31 STM32F4xx_StdPeriph_Driver\src\stm32f4xx_can.o
 .ARM.attributes
                0x00000747       0x31 STM32F4xx_StdPeriph_Driver\src\stm32f4xx_adc.o
 .ARM.attributes
                0x00000778       0x31 STM32F4xx_StdPeriph_Driver\src\misc.o
 .ARM.attributes
                0x000007a9       0x31 STM32F4-Discovery\stm32f4_discovery.o
 .ARM.attributes
                0x000007da       0x31 RFID\rfid.o
 .ARM.attributes
                0x0000080b       0x31 I2C-DS1621\I2C-DS1621.o
 .ARM.attributes
                0x0000083c       0x31 FreeRTOS\timers.o
 .ARM.attributes
                0x0000086d       0x31 FreeRTOS\tasks.o
 .ARM.attributes
                0x0000089e       0x31 FreeRTOS\queue.o
 .ARM.attributes
                0x000008cf       0x31 FreeRTOS\portable\port.o
 .ARM.attributes
                0x00000900       0x31 FreeRTOS\portable\heap_2.o
 .ARM.attributes
                0x00000931       0x31 FreeRTOS\list.o
 .ARM.attributes
                0x00000962       0x31 FreeRTOS\croutine.o
 .ARM.attributes
                0x00000993       0x31 DS1307\DS1307.o
 .ARM.attributes
                0x000009c4       0x29 c:/program files (x86)/codesourcery/sourcery g++ lite/bin/../lib/gcc/arm-none-eabi/4.4.1/../../../../arm-none-eabi/lib/thumb2\libc.a(lib_a-errno.o)
 .ARM.attributes
                0x000009ed       0x29 c:/program files (x86)/codesourcery/sourcery g++ lite/bin/../lib/gcc/arm-none-eabi/4.4.1/../../../../arm-none-eabi/lib/thumb2\libc.a(lib_a-impure.o)
 .ARM.attributes
                0x00000a16       0x29 c:/program files (x86)/codesourcery/sourcery g++ lite/bin/../lib/gcc/arm-none-eabi/4.4.1/../../../../arm-none-eabi/lib/thumb2\libc.a(lib_a-init.o)
 .ARM.attributes
                0x00000a3f       0x29 c:/program files (x86)/codesourcery/sourcery g++ lite/bin/../lib/gcc/arm-none-eabi/4.4.1/../../../../arm-none-eabi/lib/thumb2\libc.a(lib_a-memcmp.o)
 .ARM.attributes
                0x00000a68       0x29 c:/program files (x86)/codesourcery/sourcery g++ lite/bin/../lib/gcc/arm-none-eabi/4.4.1/../../../../arm-none-eabi/lib/thumb2\libc.a(lib_a-memcpy.o)
 .ARM.attributes
                0x00000a91       0x29 c:/program files (x86)/codesourcery/sourcery g++ lite/bin/../lib/gcc/arm-none-eabi/4.4.1/../../../../arm-none-eabi/lib/thumb2\libc.a(lib_a-memset.o)
 .ARM.attributes
                0x00000aba       0x29 c:/program files (x86)/codesourcery/sourcery g++ lite/bin/../lib/gcc/arm-none-eabi/4.4.1/../../../../arm-none-eabi/lib/thumb2\libc.a(lib_a-sprintf.o)
 .ARM.attributes
                0x00000ae3       0x29 c:/program files (x86)/codesourcery/sourcery g++ lite/bin/../lib/gcc/arm-none-eabi/4.4.1/../../../../arm-none-eabi/lib/thumb2\libc.a(lib_a-strcat.o)
 .ARM.attributes
                0x00000b0c       0x29 c:/program files (x86)/codesourcery/sourcery g++ lite/bin/../lib/gcc/arm-none-eabi/4.4.1/../../../../arm-none-eabi/lib/thumb2\libc.a(lib_a-strcpy.o)
 .ARM.attributes
                0x00000b35       0x29 c:/program files (x86)/codesourcery/sourcery g++ lite/bin/../lib/gcc/arm-none-eabi/4.4.1/../../../../arm-none-eabi/lib/thumb2\libc.a(lib_a-strlen.o)
 .ARM.attributes
                0x00000b5e       0x29 c:/program files (x86)/codesourcery/sourcery g++ lite/bin/../lib/gcc/arm-none-eabi/4.4.1/../../../../arm-none-eabi/lib/thumb2\libc.a(lib_a-strncpy.o)
 .ARM.attributes
                0x00000b87       0x29 c:/program files (x86)/codesourcery/sourcery g++ lite/bin/../lib/gcc/arm-none-eabi/4.4.1/../../../../arm-none-eabi/lib/thumb2\libc.a(lib_a-svfprintf.o)
 .ARM.attributes
                0x00000bb0       0x29 c:/program files (x86)/codesourcery/sourcery g++ lite/bin/../lib/gcc/arm-none-eabi/4.4.1/../../../../arm-none-eabi/lib/thumb2\libc.a(lib_a-dtoa.o)
 .ARM.attributes
                0x00000bd9       0x29 c:/program files (x86)/codesourcery/sourcery g++ lite/bin/../lib/gcc/arm-none-eabi/4.4.1/../../../../arm-none-eabi/lib/thumb2\libc.a(lib_a-freer.o)
 .ARM.attributes
                0x00000c02       0x29 c:/program files (x86)/codesourcery/sourcery g++ lite/bin/../lib/gcc/arm-none-eabi/4.4.1/../../../../arm-none-eabi/lib/thumb2\libc.a(lib_a-locale.o)
 .ARM.attributes
                0x00000c2b       0x29 c:/program files (x86)/codesourcery/sourcery g++ lite/bin/../lib/gcc/arm-none-eabi/4.4.1/../../../../arm-none-eabi/lib/thumb2\libc.a(lib_a-malloc.o)
 .ARM.attributes
                0x00000c54       0x29 c:/program files (x86)/codesourcery/sourcery g++ lite/bin/../lib/gcc/arm-none-eabi/4.4.1/../../../../arm-none-eabi/lib/thumb2\libc.a(lib_a-mallocr.o)
 .ARM.attributes
                0x00000c7d       0x29 c:/program files (x86)/codesourcery/sourcery g++ lite/bin/../lib/gcc/arm-none-eabi/4.4.1/../../../../arm-none-eabi/lib/thumb2\libc.a(lib_a-memchr.o)
 .ARM.attributes
                0x00000ca6       0x29 c:/program files (x86)/codesourcery/sourcery g++ lite/bin/../lib/gcc/arm-none-eabi/4.4.1/../../../../arm-none-eabi/lib/thumb2\libc.a(lib_a-memmove.o)
 .ARM.attributes
                0x00000ccf       0x29 c:/program files (x86)/codesourcery/sourcery g++ lite/bin/../lib/gcc/arm-none-eabi/4.4.1/../../../../arm-none-eabi/lib/thumb2\libc.a(lib_a-mlock.o)
 .ARM.attributes
                0x00000cf8       0x29 c:/program files (x86)/codesourcery/sourcery g++ lite/bin/../lib/gcc/arm-none-eabi/4.4.1/../../../../arm-none-eabi/lib/thumb2\libc.a(lib_a-mprec.o)
 .ARM.attributes
                0x00000d21       0x29 c:/program files (x86)/codesourcery/sourcery g++ lite/bin/../lib/gcc/arm-none-eabi/4.4.1/../../../../arm-none-eabi/lib/thumb2\libc.a(lib_a-reallocr.o)
 .ARM.attributes
                0x00000d4a       0x29 c:/program files (x86)/codesourcery/sourcery g++ lite/bin/../lib/gcc/arm-none-eabi/4.4.1/../../../../arm-none-eabi/lib/thumb2\libc.a(lib_a-s_isinfd.o)
 .ARM.attributes
                0x00000d73       0x29 c:/program files (x86)/codesourcery/sourcery g++ lite/bin/../lib/gcc/arm-none-eabi/4.4.1/../../../../arm-none-eabi/lib/thumb2\libc.a(lib_a-s_isnand.o)
 .ARM.attributes
                0x00000d9c       0x29 c:/program files (x86)/codesourcery/sourcery g++ lite/bin/../lib/gcc/arm-none-eabi/4.4.1/../../../../arm-none-eabi/lib/thumb2\libc.a(lib_a-sbrkr.o)
 .ARM.attributes
                0x00000dc5       0x29 c:/program files (x86)/codesourcery/sourcery g++ lite/bin/../lib/gcc/arm-none-eabi/4.4.1/../../../../arm-none-eabi/lib/thumb2\libc.a(lib_a-strcmp.o)
 .ARM.attributes
                0x00000dee       0x29 c:/program files (x86)/codesourcery/sourcery g++ lite/bin/../lib/gcc/arm-none-eabi/4.4.1/../../../../arm-none-eabi/lib/thumb2\libc.a(lib_a-callocr.o)
 .ARM.attributes
                0x00000e17       0x29 c:/program files (x86)/codesourcery/sourcery g++ lite/bin/../lib/gcc/arm-none-eabi/4.4.1/../../../../arm-none-eabi/lib/thumb2\libc.a(lib_a-reent.o)
 .ARM.attributes
                0x00000e40       0x1b c:/program files (x86)/codesourcery/sourcery g++ lite/bin/../lib/gcc/arm-none-eabi/4.4.1/thumb2\libgcc.a(_udivsi3.o)
 .ARM.attributes
                0x00000e5b       0x1b c:/program files (x86)/codesourcery/sourcery g++ lite/bin/../lib/gcc/arm-none-eabi/4.4.1/thumb2\libgcc.a(_dvmd_tls.o)
 .ARM.attributes
                0x00000e76       0x1b c:/program files (x86)/codesourcery/sourcery g++ lite/bin/../lib/gcc/arm-none-eabi/4.4.1/thumb2\libgcc.a(_arm_addsubdf3.o)
 .ARM.attributes
                0x00000e91       0x1b c:/program files (x86)/codesourcery/sourcery g++ lite/bin/../lib/gcc/arm-none-eabi/4.4.1/thumb2\libgcc.a(_arm_muldivdf3.o)
 .ARM.attributes
                0x00000eac       0x1b c:/program files (x86)/codesourcery/sourcery g++ lite/bin/../lib/gcc/arm-none-eabi/4.4.1/thumb2\libgcc.a(_arm_cmpdf2.o)
 .ARM.attributes
                0x00000ec7       0x1b c:/program files (x86)/codesourcery/sourcery g++ lite/bin/../lib/gcc/arm-none-eabi/4.4.1/thumb2\libgcc.a(_arm_fixdfsi.o)
 .ARM.attributes
                0x00000ee2       0x1b c:/program files (x86)/codesourcery/sourcery g++ lite/bin/../lib/gcc/arm-none-eabi/4.4.1/thumb2\libgcc.a(_arm_addsubsf3.o)
 .ARM.attributes
                0x00000efd       0x1b c:/program files (x86)/codesourcery/sourcery g++ lite/bin/../lib/gcc/arm-none-eabi/4.4.1/thumb2\libgcc.a(_arm_fixsfsi.o)
 .ARM.attributes
                0x00000f18       0x1b c:/program files (x86)/codesourcery/sourcery g++ lite/bin/../lib/gcc/arm-none-eabi/4.4.1/thumb2\libgcc.a(_aeabi_uldivmod.o)
 .ARM.attributes
                0x00000f33       0x29 c:/program files (x86)/codesourcery/sourcery g++ lite/bin/../lib/gcc/arm-none-eabi/4.4.1/thumb2\libgcc.a(bpabi.o)
 .ARM.attributes
                0x00000f5c       0x29 c:/program files (x86)/codesourcery/sourcery g++ lite/bin/../lib/gcc/arm-none-eabi/4.4.1/thumb2\libgcc.a(_divdi3.o)
 .ARM.attributes
                0x00000f85       0x29 c:/program files (x86)/codesourcery/sourcery g++ lite/bin/../lib/gcc/arm-none-eabi/4.4.1/thumb2\libgcc.a(_udivdi3.o)
 .ARM.attributes
                0x00000fae       0x29 c:/program files (x86)/codesourcery/sourcery g++ lite/bin/../lib/gcc/arm-none-eabi/4.4.1/thumb2/crtend.o
 .ARM.attributes
                0x00000fd7       0x19 c:/program files (x86)/codesourcery/sourcery g++ lite/bin/../lib/gcc/arm-none-eabi/4.4.1/thumb2/crtn.o
OUTPUT(STM32F4-heating elf32-littlearm)

.debug_abbrev   0x00000000     0x546f
 .debug_abbrev  0x00000000       0xc6 Utils\timetemp.o
 .debug_abbrev  0x000000c6      0x176 Utils\syscalls-stubs.o
 .debug_abbrev  0x0000023c      0x186 Utils\retarget.o
 .debug_abbrev  0x000003c2       0xb4 Utils\itoa.o
 .debug_abbrev  0x00000476      0x160 User\system_stm32f4xx.o
 .debug_abbrev  0x000005d6       0x6f User\stm32f4xx_it.o
 .debug_abbrev  0x00000645      0x566 User\main.o
 .debug_abbrev  0x00000bab      0x171 STM32F4xx_StdPeriph_Driver\src\stm32f4xx_wwdg.o
 .debug_abbrev  0x00000d1c      0x193 STM32F4xx_StdPeriph_Driver\src\stm32f4xx_usart.o
 .debug_abbrev  0x00000eaf      0x21b STM32F4xx_StdPeriph_Driver\src\stm32f4xx_tim.o
 .debug_abbrev  0x000010ca      0x157 STM32F4xx_StdPeriph_Driver\src\stm32f4xx_syscfg.o
 .debug_abbrev  0x00001221      0x19e STM32F4xx_StdPeriph_Driver\src\stm32f4xx_spi.o
 .debug_abbrev  0x000013bf      0x1d3 STM32F4xx_StdPeriph_Driver\src\stm32f4xx_sdio.o
 .debug_abbrev  0x00001592      0x1cf STM32F4xx_StdPeriph_Driver\src\stm32f4xx_rtc.o
 .debug_abbrev  0x00001761      0x14f STM32F4xx_StdPeriph_Driver\src\stm32f4xx_rng.o
 .debug_abbrev  0x000018b0      0x21d STM32F4xx_StdPeriph_Driver\src\stm32f4xx_rcc.o
 .debug_abbrev  0x00001acd      0x19c STM32F4xx_StdPeriph_Driver\src\stm32f4xx_pwr.o
 .debug_abbrev  0x00001c69      0x112 STM32F4xx_StdPeriph_Driver\src\stm32f4xx_iwdg.o
 .debug_abbrev  0x00001d7b      0x1bb STM32F4xx_StdPeriph_Driver\src\stm32f4xx_i2c.o
 .debug_abbrev  0x00001f36      0x1f5 STM32F4xx_StdPeriph_Driver\src\stm32f4xx_hash_sha1.o
 .debug_abbrev  0x0000212b      0x1f5 STM32F4xx_StdPeriph_Driver\src\stm32f4xx_hash_md5.o
 .debug_abbrev  0x00002320      0x218 STM32F4xx_StdPeriph_Driver\src\stm32f4xx_hash.o
 .debug_abbrev  0x00002538      0x1f5 STM32F4xx_StdPeriph_Driver\src\stm32f4xx_gpio.o
 .debug_abbrev  0x0000272d      0x1d9 STM32F4xx_StdPeriph_Driver\src\stm32f4xx_fsmc.o
 .debug_abbrev  0x00002906      0x1ce STM32F4xx_StdPeriph_Driver\src\stm32f4xx_flash.o
 .debug_abbrev  0x00002ad4      0x1e1 STM32F4xx_StdPeriph_Driver\src\stm32f4xx_exti.o
 .debug_abbrev  0x00002cb5      0x1b2 STM32F4xx_StdPeriph_Driver\src\stm32f4xx_dma.o
 .debug_abbrev  0x00002e67      0x1b0 STM32F4xx_StdPeriph_Driver\src\stm32f4xx_dcmi.o
 .debug_abbrev  0x00003017       0xf4 STM32F4xx_StdPeriph_Driver\src\stm32f4xx_dbgmcu.o
 .debug_abbrev  0x0000310b      0x218 STM32F4xx_StdPeriph_Driver\src\stm32f4xx_dac.o
 .debug_abbrev  0x00003323      0x191 STM32F4xx_StdPeriph_Driver\src\stm32f4xx_cryp_tdes.o
 .debug_abbrev  0x000034b4      0x191 STM32F4xx_StdPeriph_Driver\src\stm32f4xx_cryp_des.o
 .debug_abbrev  0x00003645      0x256 STM32F4xx_StdPeriph_Driver\src\stm32f4xx_cryp_aes.o
 .debug_abbrev  0x0000389b      0x1c0 STM32F4xx_StdPeriph_Driver\src\stm32f4xx_cryp.o
 .debug_abbrev  0x00003a5b      0x130 STM32F4xx_StdPeriph_Driver\src\stm32f4xx_crc.o
 .debug_abbrev  0x00003b8b      0x221 STM32F4xx_StdPeriph_Driver\src\stm32f4xx_can.o
 .debug_abbrev  0x00003dac      0x1fc STM32F4xx_StdPeriph_Driver\src\stm32f4xx_adc.o
 .debug_abbrev  0x00003fa8      0x14d STM32F4xx_StdPeriph_Driver\src\misc.o
 .debug_abbrev  0x000040f5      0x187 STM32F4-Discovery\stm32f4_discovery.o
 .debug_abbrev  0x0000427c      0x20e RFID\rfid.o
 .debug_abbrev  0x0000448a      0x15b I2C-DS1621\I2C-DS1621.o
 .debug_abbrev  0x000045e5      0x22f FreeRTOS\timers.o
 .debug_abbrev  0x00004814      0x2a0 FreeRTOS\tasks.o
 .debug_abbrev  0x00004ab4      0x1fa FreeRTOS\queue.o
 .debug_abbrev  0x00004cae      0x193 FreeRTOS\portable\port.o
 .debug_abbrev  0x00004e41      0x1a6 FreeRTOS\portable\heap_2.o
 .debug_abbrev  0x00004fe7      0x114 FreeRTOS\list.o
 .debug_abbrev  0x000050fb      0x1f1 FreeRTOS\croutine.o
 .debug_abbrev  0x000052ec      0x183 DS1307\DS1307.o

.debug_info     0x00000000    0x192b3
 .debug_info    0x00000000      0x2a9 Utils\timetemp.o
 .debug_info    0x000002a9      0x539 Utils\syscalls-stubs.o
 .debug_info    0x000007e2      0x967 Utils\retarget.o
 .debug_info    0x00001149      0x13d Utils\itoa.o
 .debug_info    0x00001286      0x5cd User\system_stm32f4xx.o
 .debug_info    0x00001853      0x103 User\stm32f4xx_it.o
 .debug_info    0x00001956     0x3aa3 User\main.o
 .debug_info    0x000053f9      0x236 STM32F4xx_StdPeriph_Driver\src\stm32f4xx_wwdg.o
 .debug_info    0x0000562f      0x9f3 STM32F4xx_StdPeriph_Driver\src\stm32f4xx_usart.o
 .debug_info    0x00006022     0x1d5c STM32F4xx_StdPeriph_Driver\src\stm32f4xx_tim.o
 .debug_info    0x00007d7e      0x256 STM32F4xx_StdPeriph_Driver\src\stm32f4xx_syscfg.o
 .debug_info    0x00007fd4      0xb6a STM32F4xx_StdPeriph_Driver\src\stm32f4xx_spi.o
 .debug_info    0x00008b3e      0x850 STM32F4xx_StdPeriph_Driver\src\stm32f4xx_sdio.o
 .debug_info    0x0000938e     0x11c0 STM32F4xx_StdPeriph_Driver\src\stm32f4xx_rtc.o
 .debug_info    0x0000a54e      0x26c STM32F4xx_StdPeriph_Driver\src\stm32f4xx_rng.o
 .debug_info    0x0000a7ba      0xc93 STM32F4xx_StdPeriph_Driver\src\stm32f4xx_rcc.o
 .debug_info    0x0000b44d      0x4f2 STM32F4xx_StdPeriph_Driver\src\stm32f4xx_pwr.o
 .debug_info    0x0000b93f      0x1e7 STM32F4xx_StdPeriph_Driver\src\stm32f4xx_iwdg.o
 .debug_info    0x0000bb26      0xb13 STM32F4xx_StdPeriph_Driver\src\stm32f4xx_i2c.o
 .debug_info    0x0000c639      0x508 STM32F4xx_StdPeriph_Driver\src\stm32f4xx_hash_sha1.o
 .debug_info    0x0000cb41      0x4b7 STM32F4xx_StdPeriph_Driver\src\stm32f4xx_hash_md5.o
 .debug_info    0x0000cff8      0x54b STM32F4xx_StdPeriph_Driver\src\stm32f4xx_hash.o
 .debug_info    0x0000d543      0x608 STM32F4xx_StdPeriph_Driver\src\stm32f4xx_gpio.o
 .debug_info    0x0000db4b      0x92e STM32F4xx_StdPeriph_Driver\src\stm32f4xx_fsmc.o
 .debug_info    0x0000e479      0x73d STM32F4xx_StdPeriph_Driver\src\stm32f4xx_flash.o
 .debug_info    0x0000ebb6      0x346 STM32F4xx_StdPeriph_Driver\src\stm32f4xx_exti.o
 .debug_info    0x0000eefc      0x760 STM32F4xx_StdPeriph_Driver\src\stm32f4xx_dma.o
 .debug_info    0x0000f65c      0x55e STM32F4xx_StdPeriph_Driver\src\stm32f4xx_dcmi.o
 .debug_info    0x0000fbba      0x1d2 STM32F4xx_StdPeriph_Driver\src\stm32f4xx_dbgmcu.o
 .debug_info    0x0000fd8c      0x64d STM32F4xx_StdPeriph_Driver\src\stm32f4xx_dac.o
 .debug_info    0x000103d9      0x69a STM32F4xx_StdPeriph_Driver\src\stm32f4xx_cryp_tdes.o
 .debug_info    0x00010a73      0x532 STM32F4xx_StdPeriph_Driver\src\stm32f4xx_cryp_des.o
 .debug_info    0x00010fa5      0xd35 STM32F4xx_StdPeriph_Driver\src\stm32f4xx_cryp_aes.o
 .debug_info    0x00011cda      0x763 STM32F4xx_StdPeriph_Driver\src\stm32f4xx_cryp.o
 .debug_info    0x0001243d      0x1ef STM32F4xx_StdPeriph_Driver\src\stm32f4xx_crc.o
 .debug_info    0x0001262c      0xc1a STM32F4xx_StdPeriph_Driver\src\stm32f4xx_can.o
 .debug_info    0x00013246      0xc62 STM32F4xx_StdPeriph_Driver\src\stm32f4xx_adc.o
 .debug_info    0x00013ea8      0x55b STM32F4xx_StdPeriph_Driver\src\misc.o
 .debug_info    0x00014403      0x674 STM32F4-Discovery\stm32f4_discovery.o
 .debug_info    0x00014a77      0xadb RFID\rfid.o
 .debug_info    0x00015552      0x717 I2C-DS1621\I2C-DS1621.o
 .debug_info    0x00015c69      0x827 FreeRTOS\timers.o
 .debug_info    0x00016490     0x1125 FreeRTOS\tasks.o
 .debug_info    0x000175b5      0xad7 FreeRTOS\queue.o
 .debug_info    0x0001808c      0x263 FreeRTOS\portable\port.o
 .debug_info    0x000182ef      0x2d4 FreeRTOS\portable\heap_2.o
 .debug_info    0x000185c3      0x2cc FreeRTOS\list.o
 .debug_info    0x0001888f      0x51c FreeRTOS\croutine.o
 .debug_info    0x00018dab      0x508 DS1307\DS1307.o

.debug_line     0x00000000    0x13e29
 .debug_line    0x00000000      0x71b Utils\timetemp.o
 .debug_line    0x0000071b      0x807 Utils\syscalls-stubs.o
 .debug_line    0x00000f22      0x77d Utils\retarget.o
 .debug_line    0x0000169f      0x68e Utils\itoa.o
 .debug_line    0x00001d2d      0x4bb User\system_stm32f4xx.o
 .debug_line    0x000021e8      0x49d User\stm32f4xx_it.o
 .debug_line    0x00002685     0x1559 User\main.o
 .debug_line    0x00003bde      0x4c1 STM32F4xx_StdPeriph_Driver\src\stm32f4xx_wwdg.o
 .debug_line    0x0000409f      0x5dd STM32F4xx_StdPeriph_Driver\src\stm32f4xx_usart.o
 .debug_line    0x0000467c      0x8ce STM32F4xx_StdPeriph_Driver\src\stm32f4xx_tim.o
 .debug_line    0x00004f4a      0x4ba STM32F4xx_StdPeriph_Driver\src\stm32f4xx_syscfg.o
 .debug_line    0x00005404      0x59a STM32F4xx_StdPeriph_Driver\src\stm32f4xx_spi.o
 .debug_line    0x0000599e      0x56f STM32F4xx_StdPeriph_Driver\src\stm32f4xx_sdio.o
 .debug_line    0x00005f0d      0x793 STM32F4xx_StdPeriph_Driver\src\stm32f4xx_rtc.o
 .debug_line    0x000066a0      0x4c0 STM32F4xx_StdPeriph_Driver\src\stm32f4xx_rng.o
 .debug_line    0x00006b60      0x5d9 STM32F4xx_StdPeriph_Driver\src\stm32f4xx_rcc.o
 .debug_line    0x00007139      0x4fb STM32F4xx_StdPeriph_Driver\src\stm32f4xx_pwr.o
 .debug_line    0x00007634      0x4ad STM32F4xx_StdPeriph_Driver\src\stm32f4xx_iwdg.o
 .debug_line    0x00007ae1      0x5cb STM32F4xx_StdPeriph_Driver\src\stm32f4xx_i2c.o
 .debug_line    0x000080ac      0x5a5 STM32F4xx_StdPeriph_Driver\src\stm32f4xx_hash_sha1.o
 .debug_line    0x00008651      0x577 STM32F4xx_StdPeriph_Driver\src\stm32f4xx_hash_md5.o
 .debug_line    0x00008bc8      0x510 STM32F4xx_StdPeriph_Driver\src\stm32f4xx_hash.o
 .debug_line    0x000090d8      0x51f STM32F4xx_StdPeriph_Driver\src\stm32f4xx_gpio.o
 .debug_line    0x000095f7      0x5b1 STM32F4xx_StdPeriph_Driver\src\stm32f4xx_fsmc.o
 .debug_line    0x00009ba8      0x584 STM32F4xx_StdPeriph_Driver\src\stm32f4xx_flash.o
 .debug_line    0x0000a12c      0x4d8 STM32F4xx_StdPeriph_Driver\src\stm32f4xx_exti.o
 .debug_line    0x0000a604      0x573 STM32F4xx_StdPeriph_Driver\src\stm32f4xx_dma.o
 .debug_line    0x0000ab77      0x51a STM32F4xx_StdPeriph_Driver\src\stm32f4xx_dcmi.o
 .debug_line    0x0000b091      0x4a8 STM32F4xx_StdPeriph_Driver\src\stm32f4xx_dbgmcu.o
 .debug_line    0x0000b539      0x51c STM32F4xx_StdPeriph_Driver\src\stm32f4xx_dac.o
 .debug_line    0x0000ba55      0x5ac STM32F4xx_StdPeriph_Driver\src\stm32f4xx_cryp_tdes.o
 .debug_line    0x0000c001      0x545 STM32F4xx_StdPeriph_Driver\src\stm32f4xx_cryp_des.o
 .debug_line    0x0000c546      0x78b STM32F4xx_StdPeriph_Driver\src\stm32f4xx_cryp_aes.o
 .debug_line    0x0000ccd1      0x543 STM32F4xx_StdPeriph_Driver\src\stm32f4xx_cryp.o
 .debug_line    0x0000d214      0x4a8 STM32F4xx_StdPeriph_Driver\src\stm32f4xx_crc.o
 .debug_line    0x0000d6bc      0x612 STM32F4xx_StdPeriph_Driver\src\stm32f4xx_can.o
 .debug_line    0x0000dcce      0x60b STM32F4xx_StdPeriph_Driver\src\stm32f4xx_adc.o
 .debug_line    0x0000e2d9      0x4b1 STM32F4xx_StdPeriph_Driver\src\misc.o
 .debug_line    0x0000e78a      0x4f8 STM32F4-Discovery\stm32f4_discovery.o
 .debug_line    0x0000ec82      0x7fe RFID\rfid.o
 .debug_line    0x0000f480      0x93f I2C-DS1621\I2C-DS1621.o
 .debug_line    0x0000fdbf      0x703 FreeRTOS\timers.o
 .debug_line    0x000104c2      0xb06 FreeRTOS\tasks.o
 .debug_line    0x00010fc8      0x9af FreeRTOS\queue.o
 .debug_line    0x00011977      0x6a1 FreeRTOS\portable\port.o
 .debug_line    0x00012018      0x7fd FreeRTOS\portable\heap_2.o
 .debug_line    0x00012815      0x7eb FreeRTOS\list.o
 .debug_line    0x00013000      0x6cf FreeRTOS\croutine.o
 .debug_line    0x000136cf      0x75a DS1307\DS1307.o

.debug_macinfo  0x00000000  0x114fda0
 .debug_macinfo
                0x00000000    0x5bd0f Utils\timetemp.o
 .debug_macinfo
                0x0005bd0f    0x5e5bb Utils\syscalls-stubs.o
 .debug_macinfo
                0x000ba2ca    0x5c9a9 Utils\retarget.o
 .debug_macinfo
                0x00116c73    0x5af8a Utils\itoa.o
 .debug_macinfo
                0x00171bfd    0x592e5 User\system_stm32f4xx.o
 .debug_macinfo
                0x001caee2    0x592b7 User\stm32f4xx_it.o
 .debug_macinfo
                0x00224199    0x62b95 User\main.o
 .debug_macinfo
                0x00286d2e    0x593b1 STM32F4xx_StdPeriph_Driver\src\stm32f4xx_wwdg.o
 .debug_macinfo
                0x002e00df    0x593cf STM32F4xx_StdPeriph_Driver\src\stm32f4xx_usart.o
 .debug_macinfo
                0x003394ae    0x5937c STM32F4xx_StdPeriph_Driver\src\stm32f4xx_tim.o
 .debug_macinfo
                0x0039282a    0x59411 STM32F4xx_StdPeriph_Driver\src\stm32f4xx_syscfg.o
 .debug_macinfo
                0x003ebc3b    0x59390 STM32F4xx_StdPeriph_Driver\src\stm32f4xx_spi.o
 .debug_macinfo
                0x00444fcb    0x5984c STM32F4xx_StdPeriph_Driver\src\stm32f4xx_sdio.o
 .debug_macinfo
                0x0049e817    0x594e4 STM32F4xx_StdPeriph_Driver\src\stm32f4xx_rtc.o
 .debug_macinfo
                0x004f7cfb    0x592a3 STM32F4xx_StdPeriph_Driver\src\stm32f4xx_rng.o
 .debug_macinfo
                0x00550f9e    0x597af STM32F4xx_StdPeriph_Driver\src\stm32f4xx_rcc.o
 .debug_macinfo
                0x005aa74d    0x59588 STM32F4xx_StdPeriph_Driver\src\stm32f4xx_pwr.o
 .debug_macinfo
                0x00603cd5    0x592e9 STM32F4xx_StdPeriph_Driver\src\stm32f4xx_iwdg.o
 .debug_macinfo
                0x0065cfbe    0x5930d STM32F4xx_StdPeriph_Driver\src\stm32f4xx_i2c.o
 .debug_macinfo
                0x006b62cb    0x592ce STM32F4xx_StdPeriph_Driver\src\stm32f4xx_hash_sha1.o
 .debug_macinfo
                0x0070f599    0x592cd STM32F4xx_StdPeriph_Driver\src\stm32f4xx_hash_md5.o
 .debug_macinfo
                0x00768866    0x592a3 STM32F4xx_StdPeriph_Driver\src\stm32f4xx_hash.o
 .debug_macinfo
                0x007c1b09    0x592a3 STM32F4xx_StdPeriph_Driver\src\stm32f4xx_gpio.o
 .debug_macinfo
                0x0081adac    0x593e8 STM32F4xx_StdPeriph_Driver\src\stm32f4xx_fsmc.o
 .debug_macinfo
                0x00874194    0x592c8 STM32F4xx_StdPeriph_Driver\src\stm32f4xx_flash.o
 .debug_macinfo
                0x008cd45c    0x592c7 STM32F4xx_StdPeriph_Driver\src\stm32f4xx_exti.o
 .debug_macinfo
                0x00926723    0x595e3 STM32F4xx_StdPeriph_Driver\src\stm32f4xx_dma.o
 .debug_macinfo
                0x0097fd06    0x592a3 STM32F4xx_StdPeriph_Driver\src\stm32f4xx_dcmi.o
 .debug_macinfo
                0x009d8fa9    0x592ce STM32F4xx_StdPeriph_Driver\src\stm32f4xx_dbgmcu.o
 .debug_macinfo
                0x00a32277    0x593c1 STM32F4xx_StdPeriph_Driver\src\stm32f4xx_dac.o
 .debug_macinfo
                0x00a8b638    0x592ce STM32F4xx_StdPeriph_Driver\src\stm32f4xx_cryp_tdes.o
 .debug_macinfo
                0x00ae4906    0x592cd STM32F4xx_StdPeriph_Driver\src\stm32f4xx_cryp_des.o
 .debug_macinfo
                0x00b3dbd3    0x592cd STM32F4xx_StdPeriph_Driver\src\stm32f4xx_cryp_aes.o
 .debug_macinfo
                0x00b96ea0    0x592e3 STM32F4xx_StdPeriph_Driver\src\stm32f4xx_cryp.o
 .debug_macinfo
                0x00bf0183    0x592a3 STM32F4xx_StdPeriph_Driver\src\stm32f4xx_crc.o
 .debug_macinfo
                0x00c49426    0x594ab STM32F4xx_StdPeriph_Driver\src\stm32f4xx_can.o
 .debug_macinfo
                0x00ca28d1    0x595bd STM32F4xx_StdPeriph_Driver\src\stm32f4xx_adc.o
 .debug_macinfo
                0x00cfbe8e    0x592cf STM32F4xx_StdPeriph_Driver\src\misc.o
 .debug_macinfo
                0x00d5515d    0x5952c STM32F4-Discovery\stm32f4_discovery.o
 .debug_macinfo
                0x00dae689    0x5c84f RFID\rfid.o
 .debug_macinfo
                0x00e0aed8    0x5ee2d I2C-DS1621\I2C-DS1621.o
 .debug_macinfo
                0x00e69d05    0x5c417 FreeRTOS\timers.o
 .debug_macinfo
                0x00ec611c    0x5ef2f FreeRTOS\tasks.o
 .debug_macinfo
                0x00f2504b    0x5d636 FreeRTOS\queue.o
 .debug_macinfo
                0x00f82681    0x5b9b8 FreeRTOS\portable\port.o
 .debug_macinfo
                0x00fde039    0x5d51a FreeRTOS\portable\heap_2.o
 .debug_macinfo
                0x0103b553    0x5ce6a FreeRTOS\list.o
 .debug_macinfo
                0x010983bd    0x5bc94 FreeRTOS\croutine.o
 .debug_macinfo
                0x010f4051    0x5bd4f DS1307\DS1307.o

.debug_loc      0x00000000     0xaccb
 .debug_loc     0x00000000       0x13 Utils\timetemp.o
 .debug_loc     0x00000013      0x21e Utils\syscalls-stubs.o
 .debug_loc     0x00000231       0x66 Utils\retarget.o
 .debug_loc     0x00000297       0xb6 Utils\itoa.o
 .debug_loc     0x0000034d       0x93 User\system_stm32f4xx.o
 .debug_loc     0x000003e0     0x2883 User\main.o
 .debug_loc     0x00002c63       0xb9 STM32F4xx_StdPeriph_Driver\src\stm32f4xx_wwdg.o
 .debug_loc     0x00002d1c      0x33b STM32F4xx_StdPeriph_Driver\src\stm32f4xx_usart.o
 .debug_loc     0x00003057      0xa9c STM32F4xx_StdPeriph_Driver\src\stm32f4xx_tim.o
 .debug_loc     0x00003af3       0x51 STM32F4xx_StdPeriph_Driver\src\stm32f4xx_syscfg.o
 .debug_loc     0x00003b44      0x2e7 STM32F4xx_StdPeriph_Driver\src\stm32f4xx_spi.o
 .debug_loc     0x00003e2b      0x192 STM32F4xx_StdPeriph_Driver\src\stm32f4xx_sdio.o
 .debug_loc     0x00003fbd      0xb0d STM32F4xx_StdPeriph_Driver\src\stm32f4xx_rtc.o
 .debug_loc     0x00004aca       0x6b STM32F4xx_StdPeriph_Driver\src\stm32f4xx_rng.o
 .debug_loc     0x00004b35      0x3e7 STM32F4xx_StdPeriph_Driver\src\stm32f4xx_rcc.o
 .debug_loc     0x00004f1c       0x45 STM32F4xx_StdPeriph_Driver\src\stm32f4xx_pwr.o
 .debug_loc     0x00004f61       0x13 STM32F4xx_StdPeriph_Driver\src\stm32f4xx_iwdg.o
 .debug_loc     0x00004f74      0x338 STM32F4xx_StdPeriph_Driver\src\stm32f4xx_i2c.o
 .debug_loc     0x000052ac      0x404 STM32F4xx_StdPeriph_Driver\src\stm32f4xx_hash_sha1.o
 .debug_loc     0x000056b0      0x3c8 STM32F4xx_StdPeriph_Driver\src\stm32f4xx_hash_md5.o
 .debug_loc     0x00005a78      0x100 STM32F4xx_StdPeriph_Driver\src\stm32f4xx_hash.o
 .debug_loc     0x00005b78      0x1d9 STM32F4xx_StdPeriph_Driver\src\stm32f4xx_gpio.o
 .debug_loc     0x00005d51      0x225 STM32F4xx_StdPeriph_Driver\src\stm32f4xx_fsmc.o
 .debug_loc     0x00005f76      0x559 STM32F4xx_StdPeriph_Driver\src\stm32f4xx_flash.o
 .debug_loc     0x000064cf       0x6e STM32F4xx_StdPeriph_Driver\src\stm32f4xx_exti.o
 .debug_loc     0x0000653d      0x1b6 STM32F4xx_StdPeriph_Driver\src\stm32f4xx_dma.o
 .debug_loc     0x000066f3       0x93 STM32F4xx_StdPeriph_Driver\src\stm32f4xx_dcmi.o
 .debug_loc     0x00006786       0x5a STM32F4xx_StdPeriph_Driver\src\stm32f4xx_dbgmcu.o
 .debug_loc     0x000067e0      0x32c STM32F4xx_StdPeriph_Driver\src\stm32f4xx_dac.o
 .debug_loc     0x00006b0c      0x383 STM32F4xx_StdPeriph_Driver\src\stm32f4xx_cryp_tdes.o
 .debug_loc     0x00006e8f      0x283 STM32F4xx_StdPeriph_Driver\src\stm32f4xx_cryp_des.o
 .debug_loc     0x00007112      0x8cd STM32F4xx_StdPeriph_Driver\src\stm32f4xx_cryp_aes.o
 .debug_loc     0x000079df      0x14b STM32F4xx_StdPeriph_Driver\src\stm32f4xx_cryp.o
 .debug_loc     0x00007b2a       0x58 STM32F4xx_StdPeriph_Driver\src\stm32f4xx_crc.o
 .debug_loc     0x00007b82      0x514 STM32F4xx_StdPeriph_Driver\src\stm32f4xx_can.o
 .debug_loc     0x00008096      0x46d STM32F4xx_StdPeriph_Driver\src\stm32f4xx_adc.o
 .debug_loc     0x00008503       0x96 STM32F4xx_StdPeriph_Driver\src\misc.o
 .debug_loc     0x00008599       0xe1 STM32F4-Discovery\stm32f4_discovery.o
 .debug_loc     0x0000867a      0x1ec RFID\rfid.o
 .debug_loc     0x00008866      0x1a3 I2C-DS1621\I2C-DS1621.o
 .debug_loc     0x00008a09      0x545 FreeRTOS\timers.o
 .debug_loc     0x00008f4e      0xc55 FreeRTOS\tasks.o
 .debug_loc     0x00009ba3      0xba7 FreeRTOS\queue.o
 .debug_loc     0x0000a74a       0xde FreeRTOS\portable\port.o
 .debug_loc     0x0000a828      0x1d5 FreeRTOS\portable\heap_2.o
 .debug_loc     0x0000a9fd       0x76 FreeRTOS\list.o
 .debug_loc     0x0000aa73      0x156 FreeRTOS\croutine.o
 .debug_loc     0x0000abc9      0x102 DS1307\DS1307.o

.debug_pubnames
                0x00000000     0x5249
 .debug_pubnames
                0x00000000       0x89 Utils\timetemp.o
 .debug_pubnames
                0x00000089       0x7e Utils\syscalls-stubs.o
 .debug_pubnames
                0x00000107       0x1c Utils\retarget.o
 .debug_pubnames
                0x00000123       0x27 Utils\itoa.o
 .debug_pubnames
                0x0000014a       0x61 User\system_stm32f4xx.o
 .debug_pubnames
                0x000001ab       0x8f User\stm32f4xx_it.o
 .debug_pubnames
                0x0000023a      0xe25 User\main.o
 .debug_pubnames
                0x0000105f       0xb0 STM32F4xx_StdPeriph_Driver\src\stm32f4xx_wwdg.o
 .debug_pubnames
                0x0000110f      0x294 STM32F4xx_StdPeriph_Driver\src\stm32f4xx_usart.o
 .debug_pubnames
                0x000013a3      0x7c4 STM32F4xx_StdPeriph_Driver\src\stm32f4xx_tim.o
 .debug_pubnames
                0x00001b67       0xc3 STM32F4xx_StdPeriph_Driver\src\stm32f4xx_syscfg.o
 .debug_pubnames
                0x00001c2a      0x221 STM32F4xx_StdPeriph_Driver\src\stm32f4xx_spi.o
 .debug_pubnames
                0x00001e4b      0x2ac STM32F4xx_StdPeriph_Driver\src\stm32f4xx_sdio.o
 .debug_pubnames
                0x000020f7      0x514 STM32F4xx_StdPeriph_Driver\src\stm32f4xx_rtc.o
 .debug_pubnames
                0x0000260b       0xac STM32F4xx_StdPeriph_Driver\src\stm32f4xx_rng.o
 .debug_pubnames
                0x000026b7      0x417 STM32F4xx_StdPeriph_Driver\src\stm32f4xx_rcc.o
 .debug_pubnames
                0x00002ace      0x120 STM32F4xx_StdPeriph_Driver\src\stm32f4xx_pwr.o
 .debug_pubnames
                0x00002bee       0x91 STM32F4xx_StdPeriph_Driver\src\stm32f4xx_iwdg.o
 .debug_pubnames
                0x00002c7f      0x2cb STM32F4xx_StdPeriph_Driver\src\stm32f4xx_i2c.o
 .debug_pubnames
                0x00002f4a       0x2e STM32F4xx_StdPeriph_Driver\src\stm32f4xx_hash_sha1.o
 .debug_pubnames
                0x00002f78       0x2c STM32F4xx_StdPeriph_Driver\src\stm32f4xx_hash_md5.o
 .debug_pubnames
                0x00002fa4      0x170 STM32F4xx_StdPeriph_Driver\src\stm32f4xx_hash.o
 .debug_pubnames
                0x00003114      0x12d STM32F4xx_StdPeriph_Driver\src\stm32f4xx_gpio.o
 .debug_pubnames
                0x00003241      0x1a3 STM32F4xx_StdPeriph_Driver\src\stm32f4xx_fsmc.o
 .debug_pubnames
                0x000033e4      0x2bd STM32F4xx_StdPeriph_Driver\src\stm32f4xx_flash.o
 .debug_pubnames
                0x000036a1       0xbb STM32F4xx_StdPeriph_Driver\src\stm32f4xx_exti.o
 .debug_pubnames
                0x0000375c      0x1c9 STM32F4xx_StdPeriph_Driver\src\stm32f4xx_dma.o
 .debug_pubnames
                0x00003925      0x13a STM32F4xx_StdPeriph_Driver\src\stm32f4xx_dcmi.o
 .debug_pubnames
                0x00003a5f       0x84 STM32F4xx_StdPeriph_Driver\src\stm32f4xx_dbgmcu.o
 .debug_pubnames
                0x00003ae3      0x17d STM32F4xx_StdPeriph_Driver\src\stm32f4xx_dac.o
 .debug_pubnames
                0x00003c60       0x36 STM32F4xx_StdPeriph_Driver\src\stm32f4xx_cryp_tdes.o
 .debug_pubnames
                0x00003c96       0x34 STM32F4xx_StdPeriph_Driver\src\stm32f4xx_cryp_des.o
 .debug_pubnames
                0x00003cca       0x45 STM32F4xx_StdPeriph_Driver\src\stm32f4xx_cryp_aes.o
 .debug_pubnames
                0x00003d0f      0x14e STM32F4xx_StdPeriph_Driver\src\stm32f4xx_cryp.o
 .debug_pubnames
                0x00003e5d       0x82 STM32F4xx_StdPeriph_Driver\src\stm32f4xx_crc.o
 .debug_pubnames
                0x00003edf      0x208 STM32F4xx_StdPeriph_Driver\src\stm32f4xx_can.o
 .debug_pubnames
                0x000040e7      0x446 STM32F4xx_StdPeriph_Driver\src\stm32f4xx_adc.o
 .debug_pubnames
                0x0000452d       0x89 STM32F4xx_StdPeriph_Driver\src\misc.o
 .debug_pubnames
                0x000045b6      0x150 STM32F4-Discovery\stm32f4_discovery.o
 .debug_pubnames
                0x00004706      0x18a RFID\rfid.o
 .debug_pubnames
                0x00004890       0x9e I2C-DS1621\I2C-DS1621.o
 .debug_pubnames
                0x0000492e       0x84 FreeRTOS\timers.o
 .debug_pubnames
                0x000049b2      0x319 FreeRTOS\tasks.o
 .debug_pubnames
                0x00004ccb      0x23a FreeRTOS\queue.o
 .debug_pubnames
                0x00004f05      0x13d FreeRTOS\portable\port.o
 .debug_pubnames
                0x00005042       0x64 FreeRTOS\portable\heap_2.o
 .debug_pubnames
                0x000050a6       0x72 FreeRTOS\list.o
 .debug_pubnames
                0x00005118       0x96 FreeRTOS\croutine.o
 .debug_pubnames
                0x000051ae       0x9b DS1307\DS1307.o

.debug_aranges  0x00000000      0x620
 .debug_aranges
                0x00000000       0x20 Utils\timetemp.o
 .debug_aranges
                0x00000020       0x20 Utils\syscalls-stubs.o
 .debug_aranges
                0x00000040       0x20 Utils\retarget.o
 .debug_aranges
                0x00000060       0x20 Utils\itoa.o
 .debug_aranges
                0x00000080       0x20 User\system_stm32f4xx.o
 .debug_aranges
                0x000000a0       0x20 User\stm32f4xx_it.o
 .debug_aranges
                0x000000c0       0x20 User\main.o
 .debug_aranges
                0x000000e0       0x20 STM32F4xx_StdPeriph_Driver\src\stm32f4xx_wwdg.o
 .debug_aranges
                0x00000100       0x20 STM32F4xx_StdPeriph_Driver\src\stm32f4xx_usart.o
 .debug_aranges
                0x00000120       0x20 STM32F4xx_StdPeriph_Driver\src\stm32f4xx_tim.o
 .debug_aranges
                0x00000140       0x20 STM32F4xx_StdPeriph_Driver\src\stm32f4xx_syscfg.o
 .debug_aranges
                0x00000160       0x20 STM32F4xx_StdPeriph_Driver\src\stm32f4xx_spi.o
 .debug_aranges
                0x00000180       0x20 STM32F4xx_StdPeriph_Driver\src\stm32f4xx_sdio.o
 .debug_aranges
                0x000001a0       0x20 STM32F4xx_StdPeriph_Driver\src\stm32f4xx_rtc.o
 .debug_aranges
                0x000001c0       0x20 STM32F4xx_StdPeriph_Driver\src\stm32f4xx_rng.o
 .debug_aranges
                0x000001e0       0x20 STM32F4xx_StdPeriph_Driver\src\stm32f4xx_rcc.o
 .debug_aranges
                0x00000200       0x20 STM32F4xx_StdPeriph_Driver\src\stm32f4xx_pwr.o
 .debug_aranges
                0x00000220       0x20 STM32F4xx_StdPeriph_Driver\src\stm32f4xx_iwdg.o
 .debug_aranges
                0x00000240       0x20 STM32F4xx_StdPeriph_Driver\src\stm32f4xx_i2c.o
 .debug_aranges
                0x00000260       0x20 STM32F4xx_StdPeriph_Driver\src\stm32f4xx_hash_sha1.o
 .debug_aranges
                0x00000280       0x20 STM32F4xx_StdPeriph_Driver\src\stm32f4xx_hash_md5.o
 .debug_aranges
                0x000002a0       0x20 STM32F4xx_StdPeriph_Driver\src\stm32f4xx_hash.o
 .debug_aranges
                0x000002c0       0x20 STM32F4xx_StdPeriph_Driver\src\stm32f4xx_gpio.o
 .debug_aranges
                0x000002e0       0x20 STM32F4xx_StdPeriph_Driver\src\stm32f4xx_fsmc.o
 .debug_aranges
                0x00000300       0x20 STM32F4xx_StdPeriph_Driver\src\stm32f4xx_flash.o
 .debug_aranges
                0x00000320       0x20 STM32F4xx_StdPeriph_Driver\src\stm32f4xx_exti.o
 .debug_aranges
                0x00000340       0x20 STM32F4xx_StdPeriph_Driver\src\stm32f4xx_dma.o
 .debug_aranges
                0x00000360       0x20 STM32F4xx_StdPeriph_Driver\src\stm32f4xx_dcmi.o
 .debug_aranges
                0x00000380       0x20 STM32F4xx_StdPeriph_Driver\src\stm32f4xx_dbgmcu.o
 .debug_aranges
                0x000003a0       0x20 STM32F4xx_StdPeriph_Driver\src\stm32f4xx_dac.o
 .debug_aranges
                0x000003c0       0x20 STM32F4xx_StdPeriph_Driver\src\stm32f4xx_cryp_tdes.o
 .debug_aranges
                0x000003e0       0x20 STM32F4xx_StdPeriph_Driver\src\stm32f4xx_cryp_des.o
 .debug_aranges
                0x00000400       0x20 STM32F4xx_StdPeriph_Driver\src\stm32f4xx_cryp_aes.o
 .debug_aranges
                0x00000420       0x20 STM32F4xx_StdPeriph_Driver\src\stm32f4xx_cryp.o
 .debug_aranges
                0x00000440       0x20 STM32F4xx_StdPeriph_Driver\src\stm32f4xx_crc.o
 .debug_aranges
                0x00000460       0x20 STM32F4xx_StdPeriph_Driver\src\stm32f4xx_can.o
 .debug_aranges
                0x00000480       0x20 STM32F4xx_StdPeriph_Driver\src\stm32f4xx_adc.o
 .debug_aranges
                0x000004a0       0x20 STM32F4xx_StdPeriph_Driver\src\misc.o
 .debug_aranges
                0x000004c0       0x20 STM32F4-Discovery\stm32f4_discovery.o
 .debug_aranges
                0x000004e0       0x20 RFID\rfid.o
 .debug_aranges
                0x00000500       0x20 I2C-DS1621\I2C-DS1621.o
 .debug_aranges
                0x00000520       0x20 FreeRTOS\timers.o
 .debug_aranges
                0x00000540       0x20 FreeRTOS\tasks.o
 .debug_aranges
                0x00000560       0x20 FreeRTOS\queue.o
 .debug_aranges
                0x00000580       0x20 FreeRTOS\portable\port.o
 .debug_aranges
                0x000005a0       0x20 FreeRTOS\portable\heap_2.o
 .debug_aranges
                0x000005c0       0x20 FreeRTOS\list.o
 .debug_aranges
                0x000005e0       0x20 FreeRTOS\croutine.o
 .debug_aranges
                0x00000600       0x20 DS1307\DS1307.o

.debug_str      0x00000000     0x96dc
 .debug_str     0x00000000      0x1ca Utils\timetemp.o
                                0x243 (size before relaxing)
 .debug_str     0x000001ca      0x17f Utils\syscalls-stubs.o
                                0x2ac (size before relaxing)
 .debug_str     0x00000349      0x3a7 Utils\retarget.o
                                0x4f6 (size before relaxing)
 .debug_str     0x000006f0       0x1d Utils\itoa.o
                                0x113 (size before relaxing)
 .debug_str     0x0000070d      0x1d0 User\system_stm32f4xx.o
                                0x2e3 (size before relaxing)
 .debug_str     0x000008dd       0x7c User\stm32f4xx_it.o
                                0x160 (size before relaxing)
 .debug_str     0x00000959     0x18b0 User\main.o
                               0x1ba3 (size before relaxing)
 .debug_str     0x00002209       0xc7 STM32F4xx_StdPeriph_Driver\src\stm32f4xx_wwdg.o
                                0x1fa (size before relaxing)
 .debug_str     0x000022d0      0x413 STM32F4xx_StdPeriph_Driver\src\stm32f4xx_usart.o
                                0x614 (size before relaxing)
 .debug_str     0x000026e3      0x9f3 STM32F4xx_StdPeriph_Driver\src\stm32f4xx_tim.o
                                0xd55 (size before relaxing)
 .debug_str     0x000030d6      0x13d STM32F4xx_StdPeriph_Driver\src\stm32f4xx_syscfg.o
                                0x275 (size before relaxing)
 .debug_str     0x00003213      0x2da STM32F4xx_StdPeriph_Driver\src\stm32f4xx_spi.o
                                0x603 (size before relaxing)
 .debug_str     0x000034ed      0x45c STM32F4xx_StdPeriph_Driver\src\stm32f4xx_sdio.o
                                0x5c3 (size before relaxing)
 .debug_str     0x00003949      0x941 STM32F4xx_StdPeriph_Driver\src\stm32f4xx_rtc.o
                                0xacc (size before relaxing)
 .debug_str     0x0000428a       0xbc STM32F4xx_StdPeriph_Driver\src\stm32f4xx_rng.o
                                0x1fd (size before relaxing)
 .debug_str     0x00004346      0x4e6 STM32F4xx_StdPeriph_Driver\src\stm32f4xx_rcc.o
                                0x7c0 (size before relaxing)
 .debug_str     0x0000482c      0x164 STM32F4xx_StdPeriph_Driver\src\stm32f4xx_pwr.o
                                0x2f8 (size before relaxing)
 .debug_str     0x00004990       0xc4 STM32F4xx_StdPeriph_Driver\src\stm32f4xx_iwdg.o
                                0x1e4 (size before relaxing)
 .debug_str     0x00004a54      0x3ab STM32F4xx_StdPeriph_Driver\src\stm32f4xx_i2c.o
                                0x5ea (size before relaxing)
 .debug_str     0x00004dff      0x136 STM32F4xx_StdPeriph_Driver\src\stm32f4xx_hash_sha1.o
                                0x27c (size before relaxing)
 .debug_str     0x00004f35       0x72 STM32F4xx_StdPeriph_Driver\src\stm32f4xx_hash_md5.o
                                0x277 (size before relaxing)
 .debug_str     0x00004fa7      0x1eb STM32F4xx_StdPeriph_Driver\src\stm32f4xx_hash.o
                                0x3aa (size before relaxing)
 .debug_str     0x00005192      0x17e STM32F4xx_StdPeriph_Driver\src\stm32f4xx_gpio.o
                                0x428 (size before relaxing)
 .debug_str     0x00005310      0x378 STM32F4xx_StdPeriph_Driver\src\stm32f4xx_fsmc.o
                                0x6b0 (size before relaxing)
 .debug_str     0x00005688      0x38d STM32F4xx_StdPeriph_Driver\src\stm32f4xx_flash.o
                                0x4fe (size before relaxing)
 .debug_str     0x00005a15      0x1a9 STM32F4xx_StdPeriph_Driver\src\stm32f4xx_exti.o
                                0x2e6 (size before relaxing)
 .debug_str     0x00005bbe      0x36d STM32F4xx_StdPeriph_Driver\src\stm32f4xx_dma.o
                                0x4d1 (size before relaxing)
 .debug_str     0x00005f2b      0x2f1 STM32F4xx_StdPeriph_Driver\src\stm32f4xx_dcmi.o
                                0x451 (size before relaxing)
 .debug_str     0x0000621c       0xb6 STM32F4xx_StdPeriph_Driver\src\stm32f4xx_dbgmcu.o
                                0x1cb (size before relaxing)
 .debug_str     0x000062d2      0x26b STM32F4xx_StdPeriph_Driver\src\stm32f4xx_dac.o
                                0x3c4 (size before relaxing)
 .debug_str     0x0000653d      0x1d4 STM32F4xx_StdPeriph_Driver\src\stm32f4xx_cryp_tdes.o
                                0x35d (size before relaxing)
 .debug_str     0x00006711       0x51 STM32F4xx_StdPeriph_Driver\src\stm32f4xx_cryp_des.o
                                0x357 (size before relaxing)
 .debug_str     0x00006762       0xb0 STM32F4xx_StdPeriph_Driver\src\stm32f4xx_cryp_aes.o
                                0x36c (size before relaxing)
 .debug_str     0x00006812      0x25b STM32F4xx_StdPeriph_Driver\src\stm32f4xx_cryp.o
                                0x535 (size before relaxing)
 .debug_str     0x00006a6d       0x9f STM32F4xx_StdPeriph_Driver\src\stm32f4xx_crc.o
                                0x1c4 (size before relaxing)
 .debug_str     0x00006b0c      0x505 STM32F4xx_StdPeriph_Driver\src\stm32f4xx_can.o
                                0x6c3 (size before relaxing)
 .debug_str     0x00007011      0x5ec STM32F4xx_StdPeriph_Driver\src\stm32f4xx_adc.o
                                0x776 (size before relaxing)
 .debug_str     0x000075fd      0x198 STM32F4xx_StdPeriph_Driver\src\misc.o
                                0x33e (size before relaxing)
 .debug_str     0x00007795      0x1b2 STM32F4-Discovery\stm32f4_discovery.o
                                0x5ac (size before relaxing)
 .debug_str     0x00007947      0x675 RFID\rfid.o
                                0xbf6 (size before relaxing)
 .debug_str     0x00007fbc       0xd2 I2C-DS1621\I2C-DS1621.o
                                0x590 (size before relaxing)
 .debug_str     0x0000808e      0x3e8 FreeRTOS\timers.o
                                0x537 (size before relaxing)
 .debug_str     0x00008476      0x84d FreeRTOS\tasks.o
                                0xa21 (size before relaxing)
 .debug_str     0x00008cc3      0x404 FreeRTOS\queue.o
                                0x64a (size before relaxing)
 .debug_str     0x000090c7      0x160 FreeRTOS\portable\port.o
                                0x283 (size before relaxing)
 .debug_str     0x00009227      0x159 FreeRTOS\portable\heap_2.o
                                0x250 (size before relaxing)
 .debug_str     0x00009380       0x95 FreeRTOS\list.o
                                0x22e (size before relaxing)
 .debug_str     0x00009415      0x24b FreeRTOS\croutine.o
                                0x439 (size before relaxing)
 .debug_str     0x00009660       0x7c DS1307\DS1307.o
                                0x40a (size before relaxing)

.comment        0x00000000      0x83b
 .comment       0x00000000       0x2b Utils\timetemp.o
 .comment       0x0000002b       0x2b Utils\syscalls-stubs.o
 .comment       0x00000056       0x2b Utils\retarget.o
 .comment       0x00000081       0x2b Utils\itoa.o
 .comment       0x000000ac       0x2b User\system_stm32f4xx.o
 .comment       0x000000d7       0x2b User\stm32f4xx_it.o
 .comment       0x00000102       0x2b User\main.o
 .comment       0x0000012d       0x2b STM32F4xx_StdPeriph_Driver\src\stm32f4xx_wwdg.o
 .comment       0x00000158       0x2b STM32F4xx_StdPeriph_Driver\src\stm32f4xx_usart.o
 .comment       0x00000183       0x2b STM32F4xx_StdPeriph_Driver\src\stm32f4xx_tim.o
 .comment       0x000001ae       0x2b STM32F4xx_StdPeriph_Driver\src\stm32f4xx_syscfg.o
 .comment       0x000001d9       0x2b STM32F4xx_StdPeriph_Driver\src\stm32f4xx_spi.o
 .comment       0x00000204       0x2b STM32F4xx_StdPeriph_Driver\src\stm32f4xx_sdio.o
 .comment       0x0000022f       0x2b STM32F4xx_StdPeriph_Driver\src\stm32f4xx_rtc.o
 .comment       0x0000025a       0x2b STM32F4xx_StdPeriph_Driver\src\stm32f4xx_rng.o
 .comment       0x00000285       0x2b STM32F4xx_StdPeriph_Driver\src\stm32f4xx_rcc.o
 .comment       0x000002b0       0x2b STM32F4xx_StdPeriph_Driver\src\stm32f4xx_pwr.o
 .comment       0x000002db       0x2b STM32F4xx_StdPeriph_Driver\src\stm32f4xx_iwdg.o
 .comment       0x00000306       0x2b STM32F4xx_StdPeriph_Driver\src\stm32f4xx_i2c.o
 .comment       0x00000331       0x2b STM32F4xx_StdPeriph_Driver\src\stm32f4xx_hash_sha1.o
 .comment       0x0000035c       0x2b STM32F4xx_StdPeriph_Driver\src\stm32f4xx_hash_md5.o
 .comment       0x00000387       0x2b STM32F4xx_StdPeriph_Driver\src\stm32f4xx_hash.o
 .comment       0x000003b2       0x2b STM32F4xx_StdPeriph_Driver\src\stm32f4xx_gpio.o
 .comment       0x000003dd       0x2b STM32F4xx_StdPeriph_Driver\src\stm32f4xx_fsmc.o
 .comment       0x00000408       0x2b STM32F4xx_StdPeriph_Driver\src\stm32f4xx_flash.o
 .comment       0x00000433       0x2b STM32F4xx_StdPeriph_Driver\src\stm32f4xx_exti.o
 .comment       0x0000045e       0x2b STM32F4xx_StdPeriph_Driver\src\stm32f4xx_dma.o
 .comment       0x00000489       0x2b STM32F4xx_StdPeriph_Driver\src\stm32f4xx_dcmi.o
 .comment       0x000004b4       0x2b STM32F4xx_StdPeriph_Driver\src\stm32f4xx_dbgmcu.o
 .comment       0x000004df       0x2b STM32F4xx_StdPeriph_Driver\src\stm32f4xx_dac.o
 .comment       0x0000050a       0x2b STM32F4xx_StdPeriph_Driver\src\stm32f4xx_cryp_tdes.o
 .comment       0x00000535       0x2b STM32F4xx_StdPeriph_Driver\src\stm32f4xx_cryp_des.o
 .comment       0x00000560       0x2b STM32F4xx_StdPeriph_Driver\src\stm32f4xx_cryp_aes.o
 .comment       0x0000058b       0x2b STM32F4xx_StdPeriph_Driver\src\stm32f4xx_cryp.o
 .comment       0x000005b6       0x2b STM32F4xx_StdPeriph_Driver\src\stm32f4xx_crc.o
 .comment       0x000005e1       0x2b STM32F4xx_StdPeriph_Driver\src\stm32f4xx_can.o
 .comment       0x0000060c       0x2b STM32F4xx_StdPeriph_Driver\src\stm32f4xx_adc.o
 .comment       0x00000637       0x2b STM32F4xx_StdPeriph_Driver\src\misc.o
 .comment       0x00000662       0x2b STM32F4-Discovery\stm32f4_discovery.o
 .comment       0x0000068d       0x2b RFID\rfid.o
 .comment       0x000006b8       0x2b I2C-DS1621\I2C-DS1621.o
 .comment       0x000006e3       0x2b FreeRTOS\timers.o
 .comment       0x0000070e       0x2b FreeRTOS\tasks.o
 .comment       0x00000739       0x2b FreeRTOS\queue.o
 .comment       0x00000764       0x2b FreeRTOS\portable\port.o
 .comment       0x0000078f       0x2b FreeRTOS\portable\heap_2.o
 .comment       0x000007ba       0x2b FreeRTOS\list.o
 .comment       0x000007e5       0x2b FreeRTOS\croutine.o
 .comment       0x00000810       0x2b DS1307\DS1307.o

.debug_frame    0x00000000     0x5150
 .debug_frame   0x00000000       0x60 Utils\timetemp.o
 .debug_frame   0x00000060       0xe8 Utils\syscalls-stubs.o
 .debug_frame   0x00000148       0x2c Utils\retarget.o
 .debug_frame   0x00000174       0x40 Utils\itoa.o
 .debug_frame   0x000001b4       0x34 User\system_stm32f4xx.o
 .debug_frame   0x000001e8       0x70 User\stm32f4xx_it.o
 .debug_frame   0x00000258      0xd3c User\main.o
 .debug_frame   0x00000f94       0x9c STM32F4xx_StdPeriph_Driver\src\stm32f4xx_wwdg.o
 .debug_frame   0x00001030      0x1f8 STM32F4xx_StdPeriph_Driver\src\stm32f4xx_usart.o
 .debug_frame   0x00001228      0x658 STM32F4xx_StdPeriph_Driver\src\stm32f4xx_tim.o
 .debug_frame   0x00001880       0x84 STM32F4xx_StdPeriph_Driver\src\stm32f4xx_syscfg.o
 .debug_frame   0x00001904      0x1b8 STM32F4xx_StdPeriph_Driver\src\stm32f4xx_spi.o
 .debug_frame   0x00001abc      0x214 STM32F4xx_StdPeriph_Driver\src\stm32f4xx_sdio.o
 .debug_frame   0x00001cd0      0x478 STM32F4xx_StdPeriph_Driver\src\stm32f4xx_rtc.o
 .debug_frame   0x00002148       0x98 STM32F4xx_StdPeriph_Driver\src\stm32f4xx_rng.o
 .debug_frame   0x000021e0      0x2e4 STM32F4xx_StdPeriph_Driver\src\stm32f4xx_rcc.o
 .debug_frame   0x000024c4       0xd8 STM32F4xx_StdPeriph_Driver\src\stm32f4xx_pwr.o
 .debug_frame   0x0000259c       0x70 STM32F4xx_StdPeriph_Driver\src\stm32f4xx_iwdg.o
 .debug_frame   0x0000260c      0x244 STM32F4xx_StdPeriph_Driver\src\stm32f4xx_i2c.o
 .debug_frame   0x00002850       0x5c STM32F4xx_StdPeriph_Driver\src\stm32f4xx_hash_sha1.o
 .debug_frame   0x000028ac       0x5c STM32F4xx_StdPeriph_Driver\src\stm32f4xx_hash_md5.o
 .debug_frame   0x00002908      0x138 STM32F4xx_StdPeriph_Driver\src\stm32f4xx_hash.o
 .debug_frame   0x00002a40      0x118 STM32F4xx_StdPeriph_Driver\src\stm32f4xx_gpio.o
 .debug_frame   0x00002b58      0x168 STM32F4xx_StdPeriph_Driver\src\stm32f4xx_fsmc.o
 .debug_frame   0x00002cc0      0x264 STM32F4xx_StdPeriph_Driver\src\stm32f4xx_flash.o
 .debug_frame   0x00002f24       0x98 STM32F4xx_StdPeriph_Driver\src\stm32f4xx_exti.o
 .debug_frame   0x00002fbc      0x170 STM32F4xx_StdPeriph_Driver\src\stm32f4xx_dma.o
 .debug_frame   0x0000312c      0x100 STM32F4xx_StdPeriph_Driver\src\stm32f4xx_dcmi.o
 .debug_frame   0x0000322c       0x60 STM32F4xx_StdPeriph_Driver\src\stm32f4xx_dbgmcu.o
 .debug_frame   0x0000328c      0x140 STM32F4xx_StdPeriph_Driver\src\stm32f4xx_dac.o
 .debug_frame   0x000033cc       0x5c STM32F4xx_StdPeriph_Driver\src\stm32f4xx_cryp_tdes.o
 .debug_frame   0x00003428       0x5c STM32F4xx_StdPeriph_Driver\src\stm32f4xx_cryp_des.o
 .debug_frame   0x00003484       0x88 STM32F4xx_StdPeriph_Driver\src\stm32f4xx_cryp_aes.o
 .debug_frame   0x0000350c      0x134 STM32F4xx_StdPeriph_Driver\src\stm32f4xx_cryp.o
 .debug_frame   0x00003640       0x78 STM32F4xx_StdPeriph_Driver\src\stm32f4xx_crc.o
 .debug_frame   0x000036b8      0x1c8 STM32F4xx_StdPeriph_Driver\src\stm32f4xx_can.o
 .debug_frame   0x00003880      0x2a8 STM32F4xx_StdPeriph_Driver\src\stm32f4xx_adc.o
 .debug_frame   0x00003b28       0x60 STM32F4xx_StdPeriph_Driver\src\misc.o
 .debug_frame   0x00003b88       0xa0 STM32F4-Discovery\stm32f4_discovery.o
 .debug_frame   0x00003c28      0x134 RFID\rfid.o
 .debug_frame   0x00003d5c       0xb0 I2C-DS1621\I2C-DS1621.o
 .debug_frame   0x00003e0c      0x120 FreeRTOS\timers.o
 .debug_frame   0x00003f2c      0x3b8 FreeRTOS\tasks.o
 .debug_frame   0x000042e4      0x278 FreeRTOS\queue.o
 .debug_frame   0x0000455c      0x110 FreeRTOS\portable\port.o
 .debug_frame   0x0000466c       0x68 FreeRTOS\portable\heap_2.o
 .debug_frame   0x000046d4       0x68 FreeRTOS\list.o
 .debug_frame   0x0000473c       0x88 FreeRTOS\croutine.o
 .debug_frame   0x000047c4       0xc8 DS1307\DS1307.o
 .debug_frame   0x0000488c       0x20 c:/program files (x86)/codesourcery/sourcery g++ lite/bin/../lib/gcc/arm-none-eabi/4.4.1/../../../../arm-none-eabi/lib/thumb2\libc.a(lib_a-errno.o)
 .debug_frame   0x000048ac       0x2c c:/program files (x86)/codesourcery/sourcery g++ lite/bin/../lib/gcc/arm-none-eabi/4.4.1/../../../../arm-none-eabi/lib/thumb2\libc.a(lib_a-init.o)
 .debug_frame   0x000048d8       0x28 c:/program files (x86)/codesourcery/sourcery g++ lite/bin/../lib/gcc/arm-none-eabi/4.4.1/../../../../arm-none-eabi/lib/thumb2\libc.a(lib_a-memcmp.o)
 .debug_frame   0x00004900       0x34 c:/program files (x86)/codesourcery/sourcery g++ lite/bin/../lib/gcc/arm-none-eabi/4.4.1/../../../../arm-none-eabi/lib/thumb2\libc.a(lib_a-memcpy.o)
 .debug_frame   0x00004934       0x28 c:/program files (x86)/codesourcery/sourcery g++ lite/bin/../lib/gcc/arm-none-eabi/4.4.1/../../../../arm-none-eabi/lib/thumb2\libc.a(lib_a-memset.o)
 .debug_frame   0x0000495c       0x5c c:/program files (x86)/codesourcery/sourcery g++ lite/bin/../lib/gcc/arm-none-eabi/4.4.1/../../../../arm-none-eabi/lib/thumb2\libc.a(lib_a-sprintf.o)
 .debug_frame   0x000049b8       0x28 c:/program files (x86)/codesourcery/sourcery g++ lite/bin/../lib/gcc/arm-none-eabi/4.4.1/../../../../arm-none-eabi/lib/thumb2\libc.a(lib_a-strcat.o)
 .debug_frame   0x000049e0       0x20 c:/program files (x86)/codesourcery/sourcery g++ lite/bin/../lib/gcc/arm-none-eabi/4.4.1/../../../../arm-none-eabi/lib/thumb2\libc.a(lib_a-strcpy.o)
 .debug_frame   0x00004a00       0x20 c:/program files (x86)/codesourcery/sourcery g++ lite/bin/../lib/gcc/arm-none-eabi/4.4.1/../../../../arm-none-eabi/lib/thumb2\libc.a(lib_a-strlen.o)
 .debug_frame   0x00004a20       0x28 c:/program files (x86)/codesourcery/sourcery g++ lite/bin/../lib/gcc/arm-none-eabi/4.4.1/../../../../arm-none-eabi/lib/thumb2\libc.a(lib_a-strncpy.o)
 .debug_frame   0x00004a48       0x68 c:/program files (x86)/codesourcery/sourcery g++ lite/bin/../lib/gcc/arm-none-eabi/4.4.1/../../../../arm-none-eabi/lib/thumb2\libc.a(lib_a-svfprintf.o)
 .debug_frame   0x00004ab0       0x64 c:/program files (x86)/codesourcery/sourcery g++ lite/bin/../lib/gcc/arm-none-eabi/4.4.1/../../../../arm-none-eabi/lib/thumb2\libc.a(lib_a-dtoa.o)
 .debug_frame   0x00004b14       0x50 c:/program files (x86)/codesourcery/sourcery g++ lite/bin/../lib/gcc/arm-none-eabi/4.4.1/../../../../arm-none-eabi/lib/thumb2\libc.a(lib_a-freer.o)
 .debug_frame   0x00004b64       0x6c c:/program files (x86)/codesourcery/sourcery g++ lite/bin/../lib/gcc/arm-none-eabi/4.4.1/../../../../arm-none-eabi/lib/thumb2\libc.a(lib_a-locale.o)
 .debug_frame   0x00004bd0       0x30 c:/program files (x86)/codesourcery/sourcery g++ lite/bin/../lib/gcc/arm-none-eabi/4.4.1/../../../../arm-none-eabi/lib/thumb2\libc.a(lib_a-malloc.o)
 .debug_frame   0x00004c00       0x3c c:/program files (x86)/codesourcery/sourcery g++ lite/bin/../lib/gcc/arm-none-eabi/4.4.1/../../../../arm-none-eabi/lib/thumb2\libc.a(lib_a-mallocr.o)
 .debug_frame   0x00004c3c       0x28 c:/program files (x86)/codesourcery/sourcery g++ lite/bin/../lib/gcc/arm-none-eabi/4.4.1/../../../../arm-none-eabi/lib/thumb2\libc.a(lib_a-memchr.o)
 .debug_frame   0x00004c64       0x2c c:/program files (x86)/codesourcery/sourcery g++ lite/bin/../lib/gcc/arm-none-eabi/4.4.1/../../../../arm-none-eabi/lib/thumb2\libc.a(lib_a-memmove.o)
 .debug_frame   0x00004c90       0x30 c:/program files (x86)/codesourcery/sourcery g++ lite/bin/../lib/gcc/arm-none-eabi/4.4.1/../../../../arm-none-eabi/lib/thumb2\libc.a(lib_a-mlock.o)
 .debug_frame   0x00004cc0      0x240 c:/program files (x86)/codesourcery/sourcery g++ lite/bin/../lib/gcc/arm-none-eabi/4.4.1/../../../../arm-none-eabi/lib/thumb2\libc.a(lib_a-mprec.o)
 .debug_frame   0x00004f00       0x3c c:/program files (x86)/codesourcery/sourcery g++ lite/bin/../lib/gcc/arm-none-eabi/4.4.1/../../../../arm-none-eabi/lib/thumb2\libc.a(lib_a-reallocr.o)
 .debug_frame   0x00004f3c       0x20 c:/program files (x86)/codesourcery/sourcery g++ lite/bin/../lib/gcc/arm-none-eabi/4.4.1/../../../../arm-none-eabi/lib/thumb2\libc.a(lib_a-s_isinfd.o)
 .debug_frame   0x00004f5c       0x20 c:/program files (x86)/codesourcery/sourcery g++ lite/bin/../lib/gcc/arm-none-eabi/4.4.1/../../../../arm-none-eabi/lib/thumb2\libc.a(lib_a-s_isnand.o)
 .debug_frame   0x00004f7c       0x2c c:/program files (x86)/codesourcery/sourcery g++ lite/bin/../lib/gcc/arm-none-eabi/4.4.1/../../../../arm-none-eabi/lib/thumb2\libc.a(lib_a-sbrkr.o)
 .debug_frame   0x00004fa8       0x30 c:/program files (x86)/codesourcery/sourcery g++ lite/bin/../lib/gcc/arm-none-eabi/4.4.1/../../../../arm-none-eabi/lib/thumb2\libc.a(lib_a-strcmp.o)
 .debug_frame   0x00004fd8       0x2c c:/program files (x86)/codesourcery/sourcery g++ lite/bin/../lib/gcc/arm-none-eabi/4.4.1/../../../../arm-none-eabi/lib/thumb2\libc.a(lib_a-callocr.o)
 .debug_frame   0x00005004       0x64 c:/program files (x86)/codesourcery/sourcery g++ lite/bin/../lib/gcc/arm-none-eabi/4.4.1/../../../../arm-none-eabi/lib/thumb2\libc.a(lib_a-reent.o)
 .debug_frame   0x00005068       0x20 c:/program files (x86)/codesourcery/sourcery g++ lite/bin/../lib/gcc/arm-none-eabi/4.4.1/thumb2\libgcc.a(_udivsi3.o)
 .debug_frame   0x00005088       0x50 c:/program files (x86)/codesourcery/sourcery g++ lite/bin/../lib/gcc/arm-none-eabi/4.4.1/thumb2\libgcc.a(bpabi.o)
 .debug_frame   0x000050d8       0x3c c:/program files (x86)/codesourcery/sourcery g++ lite/bin/../lib/gcc/arm-none-eabi/4.4.1/thumb2\libgcc.a(_divdi3.o)
 .debug_frame   0x00005114       0x3c c:/program files (x86)/codesourcery/sourcery g++ lite/bin/../lib/gcc/arm-none-eabi/4.4.1/thumb2\libgcc.a(_udivdi3.o)

.debug_ranges   0x00000000      0x2a8
 .debug_ranges  0x00000000       0xc0 STM32F4xx_StdPeriph_Driver\src\stm32f4xx_hash_sha1.o
 .debug_ranges  0x000000c0       0x60 STM32F4xx_StdPeriph_Driver\src\stm32f4xx_hash_md5.o
 .debug_ranges  0x00000120       0x90 STM32F4xx_StdPeriph_Driver\src\stm32f4xx_cryp_aes.o
 .debug_ranges  0x000001b0       0x80 FreeRTOS\tasks.o
 .debug_ranges  0x00000230       0x30 FreeRTOS\portable\heap_2.o
 .debug_ranges  0x00000260       0x48 FreeRTOS\croutine.o

Cross Reference Table

Symbol                                            File
ADC_AnalogWatchdogCmd                             STM32F4xx_StdPeriph_Driver\src\stm32f4xx_adc.o
ADC_AnalogWatchdogSingleChannelConfig             STM32F4xx_StdPeriph_Driver\src\stm32f4xx_adc.o
ADC_AnalogWatchdogThresholdsConfig                STM32F4xx_StdPeriph_Driver\src\stm32f4xx_adc.o
ADC_AutoInjectedConvCmd                           STM32F4xx_StdPeriph_Driver\src\stm32f4xx_adc.o
ADC_ClearFlag                                     STM32F4xx_StdPeriph_Driver\src\stm32f4xx_adc.o
ADC_ClearITPendingBit                             STM32F4xx_StdPeriph_Driver\src\stm32f4xx_adc.o
ADC_Cmd                                           STM32F4xx_StdPeriph_Driver\src\stm32f4xx_adc.o
ADC_CommonInit                                    STM32F4xx_StdPeriph_Driver\src\stm32f4xx_adc.o
ADC_CommonStructInit                              STM32F4xx_StdPeriph_Driver\src\stm32f4xx_adc.o
ADC_ContinuousModeCmd                             STM32F4xx_StdPeriph_Driver\src\stm32f4xx_adc.o
ADC_DMACmd                                        STM32F4xx_StdPeriph_Driver\src\stm32f4xx_adc.o
ADC_DMARequestAfterLastTransferCmd                STM32F4xx_StdPeriph_Driver\src\stm32f4xx_adc.o
ADC_DeInit                                        STM32F4xx_StdPeriph_Driver\src\stm32f4xx_adc.o
ADC_DiscModeChannelCountConfig                    STM32F4xx_StdPeriph_Driver\src\stm32f4xx_adc.o
ADC_DiscModeCmd                                   STM32F4xx_StdPeriph_Driver\src\stm32f4xx_adc.o
ADC_EOCOnEachRegularChannelCmd                    STM32F4xx_StdPeriph_Driver\src\stm32f4xx_adc.o
ADC_ExternalTrigInjectedConvConfig                STM32F4xx_StdPeriph_Driver\src\stm32f4xx_adc.o
ADC_ExternalTrigInjectedConvEdgeConfig            STM32F4xx_StdPeriph_Driver\src\stm32f4xx_adc.o
ADC_GetConversionValue                            STM32F4xx_StdPeriph_Driver\src\stm32f4xx_adc.o
ADC_GetFlagStatus                                 STM32F4xx_StdPeriph_Driver\src\stm32f4xx_adc.o
ADC_GetITStatus                                   STM32F4xx_StdPeriph_Driver\src\stm32f4xx_adc.o
ADC_GetInjectedConversionValue                    STM32F4xx_StdPeriph_Driver\src\stm32f4xx_adc.o
ADC_GetMultiModeConversionValue                   STM32F4xx_StdPeriph_Driver\src\stm32f4xx_adc.o
ADC_GetSoftwareStartConvStatus                    STM32F4xx_StdPeriph_Driver\src\stm32f4xx_adc.o
ADC_GetSoftwareStartInjectedConvCmdStatus         STM32F4xx_StdPeriph_Driver\src\stm32f4xx_adc.o
ADC_IRQHandler                                    startup\startup_stm32f4xx.o
ADC_ITConfig                                      STM32F4xx_StdPeriph_Driver\src\stm32f4xx_adc.o
ADC_Init                                          STM32F4xx_StdPeriph_Driver\src\stm32f4xx_adc.o
ADC_InjectedChannelConfig                         STM32F4xx_StdPeriph_Driver\src\stm32f4xx_adc.o
ADC_InjectedDiscModeCmd                           STM32F4xx_StdPeriph_Driver\src\stm32f4xx_adc.o
ADC_InjectedSequencerLengthConfig                 STM32F4xx_StdPeriph_Driver\src\stm32f4xx_adc.o
ADC_MultiModeDMARequestAfterLastTransferCmd       STM32F4xx_StdPeriph_Driver\src\stm32f4xx_adc.o
ADC_RegularChannelConfig                          STM32F4xx_StdPeriph_Driver\src\stm32f4xx_adc.o
ADC_SetInjectedOffset                             STM32F4xx_StdPeriph_Driver\src\stm32f4xx_adc.o
ADC_SoftwareStartConv                             STM32F4xx_StdPeriph_Driver\src\stm32f4xx_adc.o
ADC_SoftwareStartInjectedConv                     STM32F4xx_StdPeriph_Driver\src\stm32f4xx_adc.o
ADC_StructInit                                    STM32F4xx_StdPeriph_Driver\src\stm32f4xx_adc.o
ADC_TempSensorVrefintCmd                          STM32F4xx_StdPeriph_Driver\src\stm32f4xx_adc.o
ADC_VBATCmd                                       STM32F4xx_StdPeriph_Driver\src\stm32f4xx_adc.o
AHBPrescTable                                     User\system_stm32f4xx.o
ASCII12x12                                        User\main.o
ASCII16x24                                        User\main.o
BUTTON_CLK                                        STM32F4-Discovery\stm32f4_discovery.o
BUTTON_EXTI_LINE                                  STM32F4-Discovery\stm32f4_discovery.o
BUTTON_IRQn                                       STM32F4-Discovery\stm32f4_discovery.o
BUTTON_PIN                                        STM32F4-Discovery\stm32f4_discovery.o
BUTTON_PIN_SOURCE                                 STM32F4-Discovery\stm32f4_discovery.o
BUTTON_PORT                                       STM32F4-Discovery\stm32f4_discovery.o
BUTTON_PORT_SOURCE                                STM32F4-Discovery\stm32f4_discovery.o
BackColor                                         User\main.o
BusFault_Handler                                  User\stm32f4xx_it.o
                                                  startup\startup_stm32f4xx.o
CAN1_RX0_IRQHandler                               startup\startup_stm32f4xx.o
CAN1_RX1_IRQHandler                               startup\startup_stm32f4xx.o
CAN1_SCE_IRQHandler                               startup\startup_stm32f4xx.o
CAN1_TX_IRQHandler                                startup\startup_stm32f4xx.o
CAN2_RX0_IRQHandler                               startup\startup_stm32f4xx.o
CAN2_RX1_IRQHandler                               startup\startup_stm32f4xx.o
CAN2_SCE_IRQHandler                               startup\startup_stm32f4xx.o
CAN2_TX_IRQHandler                                startup\startup_stm32f4xx.o
CAN_CancelTransmit                                STM32F4xx_StdPeriph_Driver\src\stm32f4xx_can.o
CAN_ClearFlag                                     STM32F4xx_StdPeriph_Driver\src\stm32f4xx_can.o
CAN_ClearITPendingBit                             STM32F4xx_StdPeriph_Driver\src\stm32f4xx_can.o
CAN_DBGFreeze                                     STM32F4xx_StdPeriph_Driver\src\stm32f4xx_can.o
CAN_DeInit                                        STM32F4xx_StdPeriph_Driver\src\stm32f4xx_can.o
CAN_FIFORelease                                   STM32F4xx_StdPeriph_Driver\src\stm32f4xx_can.o
CAN_FilterInit                                    STM32F4xx_StdPeriph_Driver\src\stm32f4xx_can.o
CAN_GetFlagStatus                                 STM32F4xx_StdPeriph_Driver\src\stm32f4xx_can.o
CAN_GetITStatus                                   STM32F4xx_StdPeriph_Driver\src\stm32f4xx_can.o
CAN_GetLSBTransmitErrorCounter                    STM32F4xx_StdPeriph_Driver\src\stm32f4xx_can.o
CAN_GetLastErrorCode                              STM32F4xx_StdPeriph_Driver\src\stm32f4xx_can.o
CAN_GetReceiveErrorCounter                        STM32F4xx_StdPeriph_Driver\src\stm32f4xx_can.o
CAN_ITConfig                                      STM32F4xx_StdPeriph_Driver\src\stm32f4xx_can.o
CAN_Init                                          STM32F4xx_StdPeriph_Driver\src\stm32f4xx_can.o
CAN_MessagePending                                STM32F4xx_StdPeriph_Driver\src\stm32f4xx_can.o
CAN_OperatingModeRequest                          STM32F4xx_StdPeriph_Driver\src\stm32f4xx_can.o
CAN_Receive                                       STM32F4xx_StdPeriph_Driver\src\stm32f4xx_can.o
CAN_SlaveStartBank                                STM32F4xx_StdPeriph_Driver\src\stm32f4xx_can.o
CAN_Sleep                                         STM32F4xx_StdPeriph_Driver\src\stm32f4xx_can.o
CAN_StructInit                                    STM32F4xx_StdPeriph_Driver\src\stm32f4xx_can.o
CAN_TTComModeCmd                                  STM32F4xx_StdPeriph_Driver\src\stm32f4xx_can.o
CAN_Transmit                                      STM32F4xx_StdPeriph_Driver\src\stm32f4xx_can.o
CAN_TransmitStatus                                STM32F4xx_StdPeriph_Driver\src\stm32f4xx_can.o
CAN_WakeUp                                        STM32F4xx_StdPeriph_Driver\src\stm32f4xx_can.o
CRC_CalcBlockCRC                                  STM32F4xx_StdPeriph_Driver\src\stm32f4xx_crc.o
CRC_CalcCRC                                       STM32F4xx_StdPeriph_Driver\src\stm32f4xx_crc.o
CRC_GetCRC                                        STM32F4xx_StdPeriph_Driver\src\stm32f4xx_crc.o
CRC_GetIDRegister                                 STM32F4xx_StdPeriph_Driver\src\stm32f4xx_crc.o
CRC_ResetDR                                       STM32F4xx_StdPeriph_Driver\src\stm32f4xx_crc.o
CRC_SetIDRegister                                 STM32F4xx_StdPeriph_Driver\src\stm32f4xx_crc.o
CRYP_AES_CBC                                      STM32F4xx_StdPeriph_Driver\src\stm32f4xx_cryp_aes.o
CRYP_AES_CTR                                      STM32F4xx_StdPeriph_Driver\src\stm32f4xx_cryp_aes.o
CRYP_AES_ECB                                      STM32F4xx_StdPeriph_Driver\src\stm32f4xx_cryp_aes.o
CRYP_Cmd                                          STM32F4xx_StdPeriph_Driver\src\stm32f4xx_cryp.o
                                                  STM32F4xx_StdPeriph_Driver\src\stm32f4xx_cryp_aes.o
                                                  STM32F4xx_StdPeriph_Driver\src\stm32f4xx_cryp_des.o
                                                  STM32F4xx_StdPeriph_Driver\src\stm32f4xx_cryp_tdes.o
CRYP_DES_CBC                                      STM32F4xx_StdPeriph_Driver\src\stm32f4xx_cryp_des.o
CRYP_DES_ECB                                      STM32F4xx_StdPeriph_Driver\src\stm32f4xx_cryp_des.o
CRYP_DMACmd                                       STM32F4xx_StdPeriph_Driver\src\stm32f4xx_cryp.o
CRYP_DataIn                                       STM32F4xx_StdPeriph_Driver\src\stm32f4xx_cryp.o
                                                  STM32F4xx_StdPeriph_Driver\src\stm32f4xx_cryp_aes.o
                                                  STM32F4xx_StdPeriph_Driver\src\stm32f4xx_cryp_des.o
                                                  STM32F4xx_StdPeriph_Driver\src\stm32f4xx_cryp_tdes.o
CRYP_DataOut                                      STM32F4xx_StdPeriph_Driver\src\stm32f4xx_cryp.o
                                                  STM32F4xx_StdPeriph_Driver\src\stm32f4xx_cryp_aes.o
                                                  STM32F4xx_StdPeriph_Driver\src\stm32f4xx_cryp_des.o
                                                  STM32F4xx_StdPeriph_Driver\src\stm32f4xx_cryp_tdes.o
CRYP_DeInit                                       STM32F4xx_StdPeriph_Driver\src\stm32f4xx_cryp.o
CRYP_FIFOFlush                                    STM32F4xx_StdPeriph_Driver\src\stm32f4xx_cryp.o
                                                  STM32F4xx_StdPeriph_Driver\src\stm32f4xx_cryp_aes.o
                                                  STM32F4xx_StdPeriph_Driver\src\stm32f4xx_cryp_des.o
                                                  STM32F4xx_StdPeriph_Driver\src\stm32f4xx_cryp_tdes.o
CRYP_GetFlagStatus                                STM32F4xx_StdPeriph_Driver\src\stm32f4xx_cryp.o
                                                  STM32F4xx_StdPeriph_Driver\src\stm32f4xx_cryp_aes.o
                                                  STM32F4xx_StdPeriph_Driver\src\stm32f4xx_cryp_des.o
                                                  STM32F4xx_StdPeriph_Driver\src\stm32f4xx_cryp_tdes.o
CRYP_GetITStatus                                  STM32F4xx_StdPeriph_Driver\src\stm32f4xx_cryp.o
CRYP_IRQHandler                                   startup\startup_stm32f4xx.o
CRYP_ITConfig                                     STM32F4xx_StdPeriph_Driver\src\stm32f4xx_cryp.o
CRYP_IVInit                                       STM32F4xx_StdPeriph_Driver\src\stm32f4xx_cryp.o
                                                  STM32F4xx_StdPeriph_Driver\src\stm32f4xx_cryp_aes.o
                                                  STM32F4xx_StdPeriph_Driver\src\stm32f4xx_cryp_des.o
                                                  STM32F4xx_StdPeriph_Driver\src\stm32f4xx_cryp_tdes.o
CRYP_IVStructInit                                 STM32F4xx_StdPeriph_Driver\src\stm32f4xx_cryp.o
CRYP_Init                                         STM32F4xx_StdPeriph_Driver\src\stm32f4xx_cryp.o
                                                  STM32F4xx_StdPeriph_Driver\src\stm32f4xx_cryp_aes.o
                                                  STM32F4xx_StdPeriph_Driver\src\stm32f4xx_cryp_des.o
                                                  STM32F4xx_StdPeriph_Driver\src\stm32f4xx_cryp_tdes.o
CRYP_KeyInit                                      STM32F4xx_StdPeriph_Driver\src\stm32f4xx_cryp.o
                                                  STM32F4xx_StdPeriph_Driver\src\stm32f4xx_cryp_aes.o
                                                  STM32F4xx_StdPeriph_Driver\src\stm32f4xx_cryp_des.o
                                                  STM32F4xx_StdPeriph_Driver\src\stm32f4xx_cryp_tdes.o
CRYP_KeyStructInit                                STM32F4xx_StdPeriph_Driver\src\stm32f4xx_cryp.o
                                                  STM32F4xx_StdPeriph_Driver\src\stm32f4xx_cryp_aes.o
                                                  STM32F4xx_StdPeriph_Driver\src\stm32f4xx_cryp_des.o
                                                  STM32F4xx_StdPeriph_Driver\src\stm32f4xx_cryp_tdes.o
CRYP_RestoreContext                               STM32F4xx_StdPeriph_Driver\src\stm32f4xx_cryp.o
CRYP_SaveContext                                  STM32F4xx_StdPeriph_Driver\src\stm32f4xx_cryp.o
CRYP_StructInit                                   STM32F4xx_StdPeriph_Driver\src\stm32f4xx_cryp.o
CRYP_TDES_CBC                                     STM32F4xx_StdPeriph_Driver\src\stm32f4xx_cryp_tdes.o
CRYP_TDES_ECB                                     STM32F4xx_StdPeriph_Driver\src\stm32f4xx_cryp_tdes.o
CalculateTime                                     Utils\timetemp.o
                                                  User\main.o
Channel3Pulse                                     User\main.o
CheckRFIDTagCode                                  RFID\rfid.o
DAC_ClearFlag                                     STM32F4xx_StdPeriph_Driver\src\stm32f4xx_dac.o
DAC_ClearITPendingBit                             STM32F4xx_StdPeriph_Driver\src\stm32f4xx_dac.o
DAC_Cmd                                           STM32F4xx_StdPeriph_Driver\src\stm32f4xx_dac.o
DAC_DMACmd                                        STM32F4xx_StdPeriph_Driver\src\stm32f4xx_dac.o
DAC_DeInit                                        STM32F4xx_StdPeriph_Driver\src\stm32f4xx_dac.o
DAC_DualSoftwareTriggerCmd                        STM32F4xx_StdPeriph_Driver\src\stm32f4xx_dac.o
DAC_GetDataOutputValue                            STM32F4xx_StdPeriph_Driver\src\stm32f4xx_dac.o
DAC_GetFlagStatus                                 STM32F4xx_StdPeriph_Driver\src\stm32f4xx_dac.o
DAC_GetITStatus                                   STM32F4xx_StdPeriph_Driver\src\stm32f4xx_dac.o
DAC_ITConfig                                      STM32F4xx_StdPeriph_Driver\src\stm32f4xx_dac.o
DAC_Init                                          STM32F4xx_StdPeriph_Driver\src\stm32f4xx_dac.o
DAC_SetChannel1Data                               STM32F4xx_StdPeriph_Driver\src\stm32f4xx_dac.o
DAC_SetChannel2Data                               STM32F4xx_StdPeriph_Driver\src\stm32f4xx_dac.o
DAC_SetDualChannelData                            STM32F4xx_StdPeriph_Driver\src\stm32f4xx_dac.o
DAC_SoftwareTriggerCmd                            STM32F4xx_StdPeriph_Driver\src\stm32f4xx_dac.o
DAC_StructInit                                    STM32F4xx_StdPeriph_Driver\src\stm32f4xx_dac.o
DAC_WaveGenerationCmd                             STM32F4xx_StdPeriph_Driver\src\stm32f4xx_dac.o
DBGMCU_APB1PeriphConfig                           STM32F4xx_StdPeriph_Driver\src\stm32f4xx_dbgmcu.o
DBGMCU_APB2PeriphConfig                           STM32F4xx_StdPeriph_Driver\src\stm32f4xx_dbgmcu.o
DBGMCU_Config                                     STM32F4xx_StdPeriph_Driver\src\stm32f4xx_dbgmcu.o
DBGMCU_GetDEVID                                   STM32F4xx_StdPeriph_Driver\src\stm32f4xx_dbgmcu.o
DBGMCU_GetREVID                                   STM32F4xx_StdPeriph_Driver\src\stm32f4xx_dbgmcu.o
DCMI_CROPCmd                                      STM32F4xx_StdPeriph_Driver\src\stm32f4xx_dcmi.o
DCMI_CROPConfig                                   STM32F4xx_StdPeriph_Driver\src\stm32f4xx_dcmi.o
DCMI_CaptureCmd                                   STM32F4xx_StdPeriph_Driver\src\stm32f4xx_dcmi.o
DCMI_ClearFlag                                    STM32F4xx_StdPeriph_Driver\src\stm32f4xx_dcmi.o
DCMI_ClearITPendingBit                            STM32F4xx_StdPeriph_Driver\src\stm32f4xx_dcmi.o
DCMI_Cmd                                          STM32F4xx_StdPeriph_Driver\src\stm32f4xx_dcmi.o
DCMI_DeInit                                       STM32F4xx_StdPeriph_Driver\src\stm32f4xx_dcmi.o
DCMI_GetFlagStatus                                STM32F4xx_StdPeriph_Driver\src\stm32f4xx_dcmi.o
DCMI_GetITStatus                                  STM32F4xx_StdPeriph_Driver\src\stm32f4xx_dcmi.o
DCMI_IRQHandler                                   startup\startup_stm32f4xx.o
DCMI_ITConfig                                     STM32F4xx_StdPeriph_Driver\src\stm32f4xx_dcmi.o
DCMI_Init                                         STM32F4xx_StdPeriph_Driver\src\stm32f4xx_dcmi.o
DCMI_JPEGCmd                                      STM32F4xx_StdPeriph_Driver\src\stm32f4xx_dcmi.o
DCMI_ReadData                                     STM32F4xx_StdPeriph_Driver\src\stm32f4xx_dcmi.o
DCMI_SetEmbeddedSynchroCodes                      STM32F4xx_StdPeriph_Driver\src\stm32f4xx_dcmi.o
DCMI_StructInit                                   STM32F4xx_StdPeriph_Driver\src\stm32f4xx_dcmi.o
DMA1_Stream0_IRQHandler                           startup\startup_stm32f4xx.o
DMA1_Stream1_IRQHandler                           startup\startup_stm32f4xx.o
DMA1_Stream2_IRQHandler                           startup\startup_stm32f4xx.o
DMA1_Stream3_IRQHandler                           startup\startup_stm32f4xx.o
DMA1_Stream4_IRQHandler                           startup\startup_stm32f4xx.o
DMA1_Stream5_IRQHandler                           startup\startup_stm32f4xx.o
DMA1_Stream6_IRQHandler                           startup\startup_stm32f4xx.o
DMA1_Stream7_IRQHandler                           startup\startup_stm32f4xx.o
DMA2_Stream0_IRQHandler                           startup\startup_stm32f4xx.o
DMA2_Stream1_IRQHandler                           startup\startup_stm32f4xx.o
DMA2_Stream2_IRQHandler                           startup\startup_stm32f4xx.o
DMA2_Stream3_IRQHandler                           startup\startup_stm32f4xx.o
DMA2_Stream4_IRQHandler                           startup\startup_stm32f4xx.o
DMA2_Stream5_IRQHandler                           startup\startup_stm32f4xx.o
DMA2_Stream6_IRQHandler                           startup\startup_stm32f4xx.o
DMA2_Stream7_IRQHandler                           startup\startup_stm32f4xx.o
DMA_ClearFlag                                     STM32F4xx_StdPeriph_Driver\src\stm32f4xx_dma.o
DMA_ClearITPendingBit                             STM32F4xx_StdPeriph_Driver\src\stm32f4xx_dma.o
DMA_Cmd                                           STM32F4xx_StdPeriph_Driver\src\stm32f4xx_dma.o
DMA_DeInit                                        STM32F4xx_StdPeriph_Driver\src\stm32f4xx_dma.o
DMA_DoubleBufferModeCmd                           STM32F4xx_StdPeriph_Driver\src\stm32f4xx_dma.o
DMA_DoubleBufferModeConfig                        STM32F4xx_StdPeriph_Driver\src\stm32f4xx_dma.o
DMA_FlowControllerConfig                          STM32F4xx_StdPeriph_Driver\src\stm32f4xx_dma.o
DMA_GetCmdStatus                                  STM32F4xx_StdPeriph_Driver\src\stm32f4xx_dma.o
DMA_GetCurrDataCounter                            STM32F4xx_StdPeriph_Driver\src\stm32f4xx_dma.o
DMA_GetCurrentMemoryTarget                        STM32F4xx_StdPeriph_Driver\src\stm32f4xx_dma.o
DMA_GetFIFOStatus                                 STM32F4xx_StdPeriph_Driver\src\stm32f4xx_dma.o
DMA_GetFlagStatus                                 STM32F4xx_StdPeriph_Driver\src\stm32f4xx_dma.o
DMA_GetITStatus                                   STM32F4xx_StdPeriph_Driver\src\stm32f4xx_dma.o
DMA_ITConfig                                      STM32F4xx_StdPeriph_Driver\src\stm32f4xx_dma.o
DMA_Init                                          STM32F4xx_StdPeriph_Driver\src\stm32f4xx_dma.o
DMA_MemoryTargetConfig                            STM32F4xx_StdPeriph_Driver\src\stm32f4xx_dma.o
DMA_PeriphIncOffsetSizeConfig                     STM32F4xx_StdPeriph_Driver\src\stm32f4xx_dma.o
DMA_SetCurrDataCounter                            STM32F4xx_StdPeriph_Driver\src\stm32f4xx_dma.o
DMA_StructInit                                    STM32F4xx_StdPeriph_Driver\src\stm32f4xx_dma.o
DS1307_ReadTime                                   DS1307\DS1307.o
DS1621_ReadData                                   I2C-DS1621\I2C-DS1621.o
DS1621_ReadTemp                                   I2C-DS1621\I2C-DS1621.o
DS1621_SendCommand                                I2C-DS1621\I2C-DS1621.o
DS1621_WriteData                                  I2C-DS1621\I2C-DS1621.o
DS1820_ConfigurationRecall                        User\main.o
DS1820_ConfigurationStore                         User\main.o
DS1820_Init                                       User\main.o
DS1820_PowerTypeGet                               User\main.o
DS1820_Search                                     User\main.o
DS1820_TemperatureAlarmGet                        User\main.o
DS1820_TemperatureAlarmSet                        User\main.o
DS1820_TemperatureConvert                         User\main.o
DS1820_TemperatureGet                             User\main.o
DebugMon_Handler                                  User\stm32f4xx_it.o
                                                  startup\startup_stm32f4xx.o
Default_Handler                                   startup\startup_stm32f4xx.o
Delay                                             User\main.o
DelayUS                                           User\main.o
DisplaySample                                     User\main.o
DrawCross                                         User\main.o
ETH_IRQHandler                                    startup\startup_stm32f4xx.o
ETH_WKUP_IRQHandler                               startup\startup_stm32f4xx.o
EXTI0_IRQHandler                                  startup\startup_stm32f4xx.o
EXTI15_10_IRQHandler                              startup\startup_stm32f4xx.o
EXTI1_IRQHandler                                  startup\startup_stm32f4xx.o
EXTI2_IRQHandler                                  startup\startup_stm32f4xx.o
EXTI3_IRQHandler                                  startup\startup_stm32f4xx.o
EXTI4_IRQHandler                                  startup\startup_stm32f4xx.o
EXTI9_5_IRQHandler                                startup\startup_stm32f4xx.o
EXTI_ClearFlag                                    STM32F4xx_StdPeriph_Driver\src\stm32f4xx_exti.o
EXTI_ClearITPendingBit                            STM32F4xx_StdPeriph_Driver\src\stm32f4xx_exti.o
EXTI_DeInit                                       STM32F4xx_StdPeriph_Driver\src\stm32f4xx_exti.o
EXTI_GenerateSWInterrupt                          STM32F4xx_StdPeriph_Driver\src\stm32f4xx_exti.o
EXTI_GetFlagStatus                                STM32F4xx_StdPeriph_Driver\src\stm32f4xx_exti.o
EXTI_GetITStatus                                  STM32F4xx_StdPeriph_Driver\src\stm32f4xx_exti.o
EXTI_Init                                         STM32F4xx_StdPeriph_Driver\src\stm32f4xx_exti.o
                                                  STM32F4-Discovery\stm32f4_discovery.o
EXTI_StructInit                                   STM32F4xx_StdPeriph_Driver\src\stm32f4xx_exti.o
FLASH_ClearFlag                                   STM32F4xx_StdPeriph_Driver\src\stm32f4xx_flash.o
FLASH_DataCacheCmd                                STM32F4xx_StdPeriph_Driver\src\stm32f4xx_flash.o
FLASH_DataCacheReset                              STM32F4xx_StdPeriph_Driver\src\stm32f4xx_flash.o
FLASH_EraseAllSectors                             STM32F4xx_StdPeriph_Driver\src\stm32f4xx_flash.o
FLASH_EraseSector                                 STM32F4xx_StdPeriph_Driver\src\stm32f4xx_flash.o
FLASH_GetFlagStatus                               STM32F4xx_StdPeriph_Driver\src\stm32f4xx_flash.o
FLASH_GetStatus                                   STM32F4xx_StdPeriph_Driver\src\stm32f4xx_flash.o
FLASH_IRQHandler                                  startup\startup_stm32f4xx.o
FLASH_ITConfig                                    STM32F4xx_StdPeriph_Driver\src\stm32f4xx_flash.o
FLASH_InstructionCacheCmd                         STM32F4xx_StdPeriph_Driver\src\stm32f4xx_flash.o
FLASH_InstructionCacheReset                       STM32F4xx_StdPeriph_Driver\src\stm32f4xx_flash.o
FLASH_Lock                                        STM32F4xx_StdPeriph_Driver\src\stm32f4xx_flash.o
FLASH_OB_BORConfig                                STM32F4xx_StdPeriph_Driver\src\stm32f4xx_flash.o
FLASH_OB_GetBOR                                   STM32F4xx_StdPeriph_Driver\src\stm32f4xx_flash.o
FLASH_OB_GetRDP                                   STM32F4xx_StdPeriph_Driver\src\stm32f4xx_flash.o
FLASH_OB_GetUser                                  STM32F4xx_StdPeriph_Driver\src\stm32f4xx_flash.o
FLASH_OB_GetWRP                                   STM32F4xx_StdPeriph_Driver\src\stm32f4xx_flash.o
FLASH_OB_Launch                                   STM32F4xx_StdPeriph_Driver\src\stm32f4xx_flash.o
FLASH_OB_Lock                                     STM32F4xx_StdPeriph_Driver\src\stm32f4xx_flash.o
FLASH_OB_RDPConfig                                STM32F4xx_StdPeriph_Driver\src\stm32f4xx_flash.o
FLASH_OB_Unlock                                   STM32F4xx_StdPeriph_Driver\src\stm32f4xx_flash.o
FLASH_OB_UserConfig                               STM32F4xx_StdPeriph_Driver\src\stm32f4xx_flash.o
FLASH_OB_WRPConfig                                STM32F4xx_StdPeriph_Driver\src\stm32f4xx_flash.o
FLASH_PrefetchBufferCmd                           STM32F4xx_StdPeriph_Driver\src\stm32f4xx_flash.o
FLASH_ProgramByte                                 STM32F4xx_StdPeriph_Driver\src\stm32f4xx_flash.o
FLASH_ProgramDoubleWord                           STM32F4xx_StdPeriph_Driver\src\stm32f4xx_flash.o
FLASH_ProgramHalfWord                             STM32F4xx_StdPeriph_Driver\src\stm32f4xx_flash.o
FLASH_ProgramWord                                 STM32F4xx_StdPeriph_Driver\src\stm32f4xx_flash.o
FLASH_SetLatency                                  STM32F4xx_StdPeriph_Driver\src\stm32f4xx_flash.o
FLASH_Unlock                                      STM32F4xx_StdPeriph_Driver\src\stm32f4xx_flash.o
FLASH_WaitForLastOperation                        STM32F4xx_StdPeriph_Driver\src\stm32f4xx_flash.o
FPU_IRQHandler                                    startup\startup_stm32f4xx.o
FSMC_ClearFlag                                    STM32F4xx_StdPeriph_Driver\src\stm32f4xx_fsmc.o
FSMC_ClearITPendingBit                            STM32F4xx_StdPeriph_Driver\src\stm32f4xx_fsmc.o
FSMC_GetECC                                       STM32F4xx_StdPeriph_Driver\src\stm32f4xx_fsmc.o
FSMC_GetFlagStatus                                STM32F4xx_StdPeriph_Driver\src\stm32f4xx_fsmc.o
FSMC_GetITStatus                                  STM32F4xx_StdPeriph_Driver\src\stm32f4xx_fsmc.o
FSMC_IRQHandler                                   startup\startup_stm32f4xx.o
FSMC_ITConfig                                     STM32F4xx_StdPeriph_Driver\src\stm32f4xx_fsmc.o
FSMC_NANDCmd                                      STM32F4xx_StdPeriph_Driver\src\stm32f4xx_fsmc.o
FSMC_NANDDeInit                                   STM32F4xx_StdPeriph_Driver\src\stm32f4xx_fsmc.o
FSMC_NANDECCCmd                                   STM32F4xx_StdPeriph_Driver\src\stm32f4xx_fsmc.o
FSMC_NANDInit                                     STM32F4xx_StdPeriph_Driver\src\stm32f4xx_fsmc.o
FSMC_NANDStructInit                               STM32F4xx_StdPeriph_Driver\src\stm32f4xx_fsmc.o
FSMC_NORSRAMCmd                                   STM32F4xx_StdPeriph_Driver\src\stm32f4xx_fsmc.o
                                                  User\main.o
FSMC_NORSRAMDeInit                                STM32F4xx_StdPeriph_Driver\src\stm32f4xx_fsmc.o
FSMC_NORSRAMInit                                  STM32F4xx_StdPeriph_Driver\src\stm32f4xx_fsmc.o
                                                  User\main.o
FSMC_NORSRAMStructInit                            STM32F4xx_StdPeriph_Driver\src\stm32f4xx_fsmc.o
FSMC_PCCARDCmd                                    STM32F4xx_StdPeriph_Driver\src\stm32f4xx_fsmc.o
FSMC_PCCARDDeInit                                 STM32F4xx_StdPeriph_Driver\src\stm32f4xx_fsmc.o
FSMC_PCCARDInit                                   STM32F4xx_StdPeriph_Driver\src\stm32f4xx_fsmc.o
FSMC_PCCARDStructInit                             STM32F4xx_StdPeriph_Driver\src\stm32f4xx_fsmc.o
FormatTemperatureString                           Utils\timetemp.o
FormatTemperatureStringHR                         Utils\timetemp.o
                                                  I2C-DS1621\I2C-DS1621.o
FormatTimeString                                  Utils\timetemp.o
                                                  User\main.o
FormatTimeString2                                 Utils\timetemp.o
                                                  User\main.o
GPIO_CLK                                          STM32F4-Discovery\stm32f4_discovery.o
GPIO_DeInit                                       STM32F4xx_StdPeriph_Driver\src\stm32f4xx_gpio.o
GPIO_Init                                         STM32F4xx_StdPeriph_Driver\src\stm32f4xx_gpio.o
                                                  DS1307\DS1307.o
                                                  I2C-DS1621\I2C-DS1621.o
                                                  RFID\rfid.o
                                                  STM32F4-Discovery\stm32f4_discovery.o
                                                  User\main.o
GPIO_InitStructure                                User\main.o
GPIO_PIN                                          STM32F4-Discovery\stm32f4_discovery.o
GPIO_PORT                                         STM32F4-Discovery\stm32f4_discovery.o
GPIO_PinAFConfig                                  STM32F4xx_StdPeriph_Driver\src\stm32f4xx_gpio.o
                                                  DS1307\DS1307.o
                                                  I2C-DS1621\I2C-DS1621.o
                                                  RFID\rfid.o
                                                  User\main.o
GPIO_PinLockConfig                                STM32F4xx_StdPeriph_Driver\src\stm32f4xx_gpio.o
GPIO_ReadInputData                                STM32F4xx_StdPeriph_Driver\src\stm32f4xx_gpio.o
                                                  User\main.o
GPIO_ReadInputDataBit                             STM32F4xx_StdPeriph_Driver\src\stm32f4xx_gpio.o
                                                  STM32F4-Discovery\stm32f4_discovery.o
                                                  User\main.o
GPIO_ReadOutputData                               STM32F4xx_StdPeriph_Driver\src\stm32f4xx_gpio.o
GPIO_ReadOutputDataBit                            STM32F4xx_StdPeriph_Driver\src\stm32f4xx_gpio.o
GPIO_ResetBits                                    STM32F4xx_StdPeriph_Driver\src\stm32f4xx_gpio.o
                                                  User\main.o
GPIO_SetBits                                      STM32F4xx_StdPeriph_Driver\src\stm32f4xx_gpio.o
                                                  User\main.o
GPIO_StructInit                                   STM32F4xx_StdPeriph_Driver\src\stm32f4xx_gpio.o
GPIO_ToggleBits                                   STM32F4xx_StdPeriph_Driver\src\stm32f4xx_gpio.o
GPIO_Write                                        STM32F4xx_StdPeriph_Driver\src\stm32f4xx_gpio.o
GPIO_WriteBit                                     STM32F4xx_StdPeriph_Driver\src\stm32f4xx_gpio.o
GetASCIICode1                                     User\main.o
GetASCIICode2                                     User\main.o
GetASCIICode3                                     User\main.o
GetASCIICode4                                     User\main.o
GetASCIICode5                                     User\main.o
HASH_ClearFlag                                    STM32F4xx_StdPeriph_Driver\src\stm32f4xx_hash.o
HASH_ClearITPendingBit                            STM32F4xx_StdPeriph_Driver\src\stm32f4xx_hash.o
HASH_DMACmd                                       STM32F4xx_StdPeriph_Driver\src\stm32f4xx_hash.o
HASH_DataIn                                       STM32F4xx_StdPeriph_Driver\src\stm32f4xx_hash.o
                                                  STM32F4xx_StdPeriph_Driver\src\stm32f4xx_hash_md5.o
                                                  STM32F4xx_StdPeriph_Driver\src\stm32f4xx_hash_sha1.o
HASH_DeInit                                       STM32F4xx_StdPeriph_Driver\src\stm32f4xx_hash.o
                                                  STM32F4xx_StdPeriph_Driver\src\stm32f4xx_hash_md5.o
                                                  STM32F4xx_StdPeriph_Driver\src\stm32f4xx_hash_sha1.o
HASH_GetDigest                                    STM32F4xx_StdPeriph_Driver\src\stm32f4xx_hash.o
                                                  STM32F4xx_StdPeriph_Driver\src\stm32f4xx_hash_md5.o
                                                  STM32F4xx_StdPeriph_Driver\src\stm32f4xx_hash_sha1.o
HASH_GetFlagStatus                                STM32F4xx_StdPeriph_Driver\src\stm32f4xx_hash.o
                                                  STM32F4xx_StdPeriph_Driver\src\stm32f4xx_hash_md5.o
                                                  STM32F4xx_StdPeriph_Driver\src\stm32f4xx_hash_sha1.o
HASH_GetITStatus                                  STM32F4xx_StdPeriph_Driver\src\stm32f4xx_hash.o
HASH_GetInFIFOWordsNbr                            STM32F4xx_StdPeriph_Driver\src\stm32f4xx_hash.o
HASH_ITConfig                                     STM32F4xx_StdPeriph_Driver\src\stm32f4xx_hash.o
HASH_Init                                         STM32F4xx_StdPeriph_Driver\src\stm32f4xx_hash.o
                                                  STM32F4xx_StdPeriph_Driver\src\stm32f4xx_hash_md5.o
                                                  STM32F4xx_StdPeriph_Driver\src\stm32f4xx_hash_sha1.o
HASH_MD5                                          STM32F4xx_StdPeriph_Driver\src\stm32f4xx_hash_md5.o
HASH_RNG_IRQHandler                               startup\startup_stm32f4xx.o
HASH_Reset                                        STM32F4xx_StdPeriph_Driver\src\stm32f4xx_hash.o
HASH_RestoreContext                               STM32F4xx_StdPeriph_Driver\src\stm32f4xx_hash.o
HASH_SHA1                                         STM32F4xx_StdPeriph_Driver\src\stm32f4xx_hash_sha1.o
HASH_SaveContext                                  STM32F4xx_StdPeriph_Driver\src\stm32f4xx_hash.o
HASH_SetLastWordValidBitsNbr                      STM32F4xx_StdPeriph_Driver\src\stm32f4xx_hash.o
                                                  STM32F4xx_StdPeriph_Driver\src\stm32f4xx_hash_md5.o
                                                  STM32F4xx_StdPeriph_Driver\src\stm32f4xx_hash_sha1.o
HASH_StartDigest                                  STM32F4xx_StdPeriph_Driver\src\stm32f4xx_hash.o
                                                  STM32F4xx_StdPeriph_Driver\src\stm32f4xx_hash_md5.o
                                                  STM32F4xx_StdPeriph_Driver\src\stm32f4xx_hash_sha1.o
HASH_StructInit                                   STM32F4xx_StdPeriph_Driver\src\stm32f4xx_hash.o
HMAC_MD5                                          STM32F4xx_StdPeriph_Driver\src\stm32f4xx_hash_md5.o
HMAC_SHA1                                         STM32F4xx_StdPeriph_Driver\src\stm32f4xx_hash_sha1.o
HardFault_Handler                                 User\stm32f4xx_it.o
                                                  startup\startup_stm32f4xx.o
I2C1_ER_IRQHandler                                startup\startup_stm32f4xx.o
I2C1_EV_IRQHandler                                startup\startup_stm32f4xx.o
I2C2_ER_IRQHandler                                startup\startup_stm32f4xx.o
I2C2_EV_IRQHandler                                startup\startup_stm32f4xx.o
I2C3_ER_IRQHandler                                startup\startup_stm32f4xx.o
I2C3_EV_IRQHandler                                startup\startup_stm32f4xx.o
I2C_ARPCmd                                        STM32F4xx_StdPeriph_Driver\src\stm32f4xx_i2c.o
I2C_AcknowledgeConfig                             STM32F4xx_StdPeriph_Driver\src\stm32f4xx_i2c.o
                                                  DS1307\DS1307.o
                                                  I2C-DS1621\I2C-DS1621.o
I2C_CalculatePEC                                  STM32F4xx_StdPeriph_Driver\src\stm32f4xx_i2c.o
I2C_CheckEvent                                    STM32F4xx_StdPeriph_Driver\src\stm32f4xx_i2c.o
                                                  DS1307\DS1307.o
                                                  I2C-DS1621\I2C-DS1621.o
I2C_ClearFlag                                     STM32F4xx_StdPeriph_Driver\src\stm32f4xx_i2c.o
I2C_ClearITPendingBit                             STM32F4xx_StdPeriph_Driver\src\stm32f4xx_i2c.o
I2C_Cmd                                           STM32F4xx_StdPeriph_Driver\src\stm32f4xx_i2c.o
                                                  DS1307\DS1307.o
                                                  I2C-DS1621\I2C-DS1621.o
I2C_Configuration                                 I2C-DS1621\I2C-DS1621.o
I2C_DMACmd                                        STM32F4xx_StdPeriph_Driver\src\stm32f4xx_i2c.o
I2C_DMALastTransferCmd                            STM32F4xx_StdPeriph_Driver\src\stm32f4xx_i2c.o
I2C_DeInit                                        STM32F4xx_StdPeriph_Driver\src\stm32f4xx_i2c.o
I2C_DualAddressCmd                                STM32F4xx_StdPeriph_Driver\src\stm32f4xx_i2c.o
I2C_FastModeDutyCycleConfig                       STM32F4xx_StdPeriph_Driver\src\stm32f4xx_i2c.o
I2C_GeneralCallCmd                                STM32F4xx_StdPeriph_Driver\src\stm32f4xx_i2c.o
I2C_GenerateSTART                                 STM32F4xx_StdPeriph_Driver\src\stm32f4xx_i2c.o
                                                  DS1307\DS1307.o
                                                  I2C-DS1621\I2C-DS1621.o
I2C_GenerateSTOP                                  STM32F4xx_StdPeriph_Driver\src\stm32f4xx_i2c.o
                                                  DS1307\DS1307.o
                                                  I2C-DS1621\I2C-DS1621.o
I2C_GetFlagStatus                                 STM32F4xx_StdPeriph_Driver\src\stm32f4xx_i2c.o
                                                  DS1307\DS1307.o
                                                  I2C-DS1621\I2C-DS1621.o
I2C_GetITStatus                                   STM32F4xx_StdPeriph_Driver\src\stm32f4xx_i2c.o
I2C_GetLastEvent                                  STM32F4xx_StdPeriph_Driver\src\stm32f4xx_i2c.o
I2C_GetPEC                                        STM32F4xx_StdPeriph_Driver\src\stm32f4xx_i2c.o
I2C_ITConfig                                      STM32F4xx_StdPeriph_Driver\src\stm32f4xx_i2c.o
I2C_Init                                          STM32F4xx_StdPeriph_Driver\src\stm32f4xx_i2c.o
                                                  DS1307\DS1307.o
                                                  I2C-DS1621\I2C-DS1621.o
I2C_NACKPositionConfig                            STM32F4xx_StdPeriph_Driver\src\stm32f4xx_i2c.o
I2C_OwnAddress2Config                             STM32F4xx_StdPeriph_Driver\src\stm32f4xx_i2c.o
I2C_PECPositionConfig                             STM32F4xx_StdPeriph_Driver\src\stm32f4xx_i2c.o
I2C_ReadRegister                                  STM32F4xx_StdPeriph_Driver\src\stm32f4xx_i2c.o
I2C_ReceiveData                                   STM32F4xx_StdPeriph_Driver\src\stm32f4xx_i2c.o
                                                  DS1307\DS1307.o
                                                  I2C-DS1621\I2C-DS1621.o
I2C_SMBusAlertConfig                              STM32F4xx_StdPeriph_Driver\src\stm32f4xx_i2c.o
I2C_Send7bitAddress                               STM32F4xx_StdPeriph_Driver\src\stm32f4xx_i2c.o
                                                  DS1307\DS1307.o
                                                  I2C-DS1621\I2C-DS1621.o
I2C_SendData                                      STM32F4xx_StdPeriph_Driver\src\stm32f4xx_i2c.o
                                                  DS1307\DS1307.o
                                                  I2C-DS1621\I2C-DS1621.o
I2C_SoftwareResetCmd                              STM32F4xx_StdPeriph_Driver\src\stm32f4xx_i2c.o
I2C_StretchClockCmd                               STM32F4xx_StdPeriph_Driver\src\stm32f4xx_i2c.o
I2C_StructInit                                    STM32F4xx_StdPeriph_Driver\src\stm32f4xx_i2c.o
I2C_TransmitPEC                                   STM32F4xx_StdPeriph_Driver\src\stm32f4xx_i2c.o
I2C_init                                          DS1307\DS1307.o
I2C_read_byte                                     DS1307\DS1307.o
I2C_read_last_byte                                DS1307\DS1307.o
I2C_reset_pointer                                 DS1307\DS1307.o
I2C_start                                         DS1307\DS1307.o
I2C_stop                                          DS1307\DS1307.o
I2C_write                                         DS1307\DS1307.o
I2S_Cmd                                           STM32F4xx_StdPeriph_Driver\src\stm32f4xx_spi.o
I2S_FullDuplexConfig                              STM32F4xx_StdPeriph_Driver\src\stm32f4xx_spi.o
I2S_Init                                          STM32F4xx_StdPeriph_Driver\src\stm32f4xx_spi.o
I2S_StructInit                                    STM32F4xx_StdPeriph_Driver\src\stm32f4xx_spi.o
IWDG_Enable                                       STM32F4xx_StdPeriph_Driver\src\stm32f4xx_iwdg.o
IWDG_GetFlagStatus                                STM32F4xx_StdPeriph_Driver\src\stm32f4xx_iwdg.o
IWDG_ReloadCounter                                STM32F4xx_StdPeriph_Driver\src\stm32f4xx_iwdg.o
IWDG_SetPrescaler                                 STM32F4xx_StdPeriph_Driver\src\stm32f4xx_iwdg.o
IWDG_SetReload                                    STM32F4xx_StdPeriph_Driver\src\stm32f4xx_iwdg.o
IWDG_WriteAccessCmd                               STM32F4xx_StdPeriph_Driver\src\stm32f4xx_iwdg.o
LCD_BackLight                                     User\main.o
LCD_CharSize                                      User\main.o
LCD_Clear                                         User\main.o
                                                  Utils\retarget.o
LCD_ClearRectangle                                User\main.o
LCD_ClosedPolyLine                                User\main.o
LCD_ClosedPolyLineRelative                        User\main.o
LCD_CtrlLinesConfig                               User\main.o
LCD_DisplayOff                                    User\main.o
LCD_DisplayOn                                     User\main.o
LCD_DrawCircle                                    User\main.o
LCD_DrawFullCircle                                User\main.o
LCD_DrawFullRect                                  User\main.o
LCD_DrawFullSquare                                User\main.o
LCD_DrawLine                                      User\main.o
LCD_DrawRect                                      User\main.o
LCD_DrawSquare                                    User\main.o
LCD_DrawUniLine                                   User\main.o
LCD_FSMCConfig                                    User\main.o
LCD_FillPolyLine                                  User\main.o
LCD_GetColors                                     User\main.o
LCD_Init                                          User\main.o
LCD_PolyLine                                      User\main.o
LCD_PolyLineRelative                              User\main.o
LCD_PutChar                                       User\main.o
                                                  Utils\retarget.o
LCD_ReadReg                                       User\main.o
LCD_SetBackColor                                  User\main.o
LCD_SetColors                                     User\main.o
LCD_SetCursor                                     User\main.o
LCD_SetDisplayWindow                              User\main.o
LCD_SetTextColor                                  User\main.o
LCD_StringLine                                    User\main.o
LCD_WriteBMP                                      User\main.o
LCD_WriteRAM                                      User\main.o
LCD_WriteRAM_Prepare                              User\main.o
LCD_WriteReg                                      User\main.o
LCDprint                                          User\main.o
LCDputc                                           User\main.o
MemManage_Handler                                 User\stm32f4xx_it.o
                                                  startup\startup_stm32f4xx.o
NMI_Handler                                       User\stm32f4xx_it.o
                                                  startup\startup_stm32f4xx.o
NVIC_Configuration                                RFID\rfid.o
NVIC_Init                                         STM32F4xx_StdPeriph_Driver\src\misc.o
                                                  RFID\rfid.o
                                                  STM32F4-Discovery\stm32f4_discovery.o
NVIC_InitStructure                                STM32F4-Discovery\stm32f4_discovery.o
NVIC_PriorityGroupConfig                          STM32F4xx_StdPeriph_Driver\src\misc.o
NVIC_SetVectorTable                               STM32F4xx_StdPeriph_Driver\src\misc.o
NVIC_SystemLPConfig                               STM32F4xx_StdPeriph_Driver\src\misc.o
OTG_FS_IRQHandler                                 startup\startup_stm32f4xx.o
OTG_FS_WKUP_IRQHandler                            startup\startup_stm32f4xx.o
OTG_HS_EP1_IN_IRQHandler                          startup\startup_stm32f4xx.o
OTG_HS_EP1_OUT_IRQHandler                         startup\startup_stm32f4xx.o
OTG_HS_IRQHandler                                 startup\startup_stm32f4xx.o
OTG_HS_WKUP_IRQHandler                            startup\startup_stm32f4xx.o
OW_BitRead                                        User\main.o
OW_BitWrite                                       User\main.o
OW_ByteRead                                       User\main.o
OW_ByteWrite                                      User\main.o
OW_CRCCalculate                                   User\main.o
OW_FamilySkipSetup                                User\main.o
OW_Init                                           User\main.o
OW_ROMMatch                                       User\main.o
OW_ROMRead                                        User\main.o
OW_ROMSkip                                        User\main.o
OW_Reset                                          User\main.o
OW_SearchFirst                                    User\main.o
OW_SearchNext                                     User\main.o
OW_StrongPullUp                                   User\main.o
OW_WeakPullUp                                     User\main.o
PVD_IRQHandler                                    startup\startup_stm32f4xx.o
PWR_BackupAccessCmd                               STM32F4xx_StdPeriph_Driver\src\stm32f4xx_pwr.o
PWR_BackupRegulatorCmd                            STM32F4xx_StdPeriph_Driver\src\stm32f4xx_pwr.o
PWR_ClearFlag                                     STM32F4xx_StdPeriph_Driver\src\stm32f4xx_pwr.o
PWR_DeInit                                        STM32F4xx_StdPeriph_Driver\src\stm32f4xx_pwr.o
PWR_EnterSTANDBYMode                              STM32F4xx_StdPeriph_Driver\src\stm32f4xx_pwr.o
PWR_EnterSTOPMode                                 STM32F4xx_StdPeriph_Driver\src\stm32f4xx_pwr.o
PWR_FlashPowerDownCmd                             STM32F4xx_StdPeriph_Driver\src\stm32f4xx_pwr.o
PWR_GetFlagStatus                                 STM32F4xx_StdPeriph_Driver\src\stm32f4xx_pwr.o
PWR_MainRegulatorModeConfig                       STM32F4xx_StdPeriph_Driver\src\stm32f4xx_pwr.o
PWR_PVDCmd                                        STM32F4xx_StdPeriph_Driver\src\stm32f4xx_pwr.o
PWR_PVDLevelConfig                                STM32F4xx_StdPeriph_Driver\src\stm32f4xx_pwr.o
PWR_WakeUpPinCmd                                  STM32F4xx_StdPeriph_Driver\src\stm32f4xx_pwr.o
PendSV_Handler                                    FreeRTOS\portable\port.o
                                                  startup\startup_stm32f4xx.o
Pixel                                             User\main.o
PutPixel                                          User\main.o
RCC_AHB1PeriphClockCmd                            STM32F4xx_StdPeriph_Driver\src\stm32f4xx_rcc.o
                                                  DS1307\DS1307.o
                                                  I2C-DS1621\I2C-DS1621.o
                                                  RFID\rfid.o
                                                  STM32F4-Discovery\stm32f4_discovery.o
                                                  User\main.o
RCC_AHB1PeriphClockLPModeCmd                      STM32F4xx_StdPeriph_Driver\src\stm32f4xx_rcc.o
RCC_AHB1PeriphResetCmd                            STM32F4xx_StdPeriph_Driver\src\stm32f4xx_rcc.o
                                                  STM32F4xx_StdPeriph_Driver\src\stm32f4xx_gpio.o
RCC_AHB2PeriphClockCmd                            STM32F4xx_StdPeriph_Driver\src\stm32f4xx_rcc.o
RCC_AHB2PeriphClockLPModeCmd                      STM32F4xx_StdPeriph_Driver\src\stm32f4xx_rcc.o
RCC_AHB2PeriphResetCmd                            STM32F4xx_StdPeriph_Driver\src\stm32f4xx_rcc.o
                                                  STM32F4xx_StdPeriph_Driver\src\stm32f4xx_cryp.o
                                                  STM32F4xx_StdPeriph_Driver\src\stm32f4xx_hash.o
                                                  STM32F4xx_StdPeriph_Driver\src\stm32f4xx_rng.o
RCC_AHB3PeriphClockCmd                            STM32F4xx_StdPeriph_Driver\src\stm32f4xx_rcc.o
                                                  User\main.o
RCC_AHB3PeriphClockLPModeCmd                      STM32F4xx_StdPeriph_Driver\src\stm32f4xx_rcc.o
RCC_AHB3PeriphResetCmd                            STM32F4xx_StdPeriph_Driver\src\stm32f4xx_rcc.o
RCC_APB1PeriphClockCmd                            STM32F4xx_StdPeriph_Driver\src\stm32f4xx_rcc.o
                                                  DS1307\DS1307.o
                                                  I2C-DS1621\I2C-DS1621.o
                                                  RFID\rfid.o
                                                  User\main.o
RCC_APB1PeriphClockLPModeCmd                      STM32F4xx_StdPeriph_Driver\src\stm32f4xx_rcc.o
RCC_APB1PeriphResetCmd                            STM32F4xx_StdPeriph_Driver\src\stm32f4xx_rcc.o
                                                  STM32F4xx_StdPeriph_Driver\src\stm32f4xx_can.o
                                                  STM32F4xx_StdPeriph_Driver\src\stm32f4xx_dac.o
                                                  STM32F4xx_StdPeriph_Driver\src\stm32f4xx_i2c.o
                                                  STM32F4xx_StdPeriph_Driver\src\stm32f4xx_pwr.o
                                                  STM32F4xx_StdPeriph_Driver\src\stm32f4xx_spi.o
                                                  STM32F4xx_StdPeriph_Driver\src\stm32f4xx_tim.o
                                                  STM32F4xx_StdPeriph_Driver\src\stm32f4xx_usart.o
                                                  STM32F4xx_StdPeriph_Driver\src\stm32f4xx_wwdg.o
RCC_APB2PeriphClockCmd                            STM32F4xx_StdPeriph_Driver\src\stm32f4xx_rcc.o
                                                  STM32F4-Discovery\stm32f4_discovery.o
                                                  User\main.o
RCC_APB2PeriphClockLPModeCmd                      STM32F4xx_StdPeriph_Driver\src\stm32f4xx_rcc.o
RCC_APB2PeriphResetCmd                            STM32F4xx_StdPeriph_Driver\src\stm32f4xx_rcc.o
                                                  STM32F4xx_StdPeriph_Driver\src\stm32f4xx_adc.o
                                                  STM32F4xx_StdPeriph_Driver\src\stm32f4xx_sdio.o
                                                  STM32F4xx_StdPeriph_Driver\src\stm32f4xx_spi.o
                                                  STM32F4xx_StdPeriph_Driver\src\stm32f4xx_syscfg.o
                                                  STM32F4xx_StdPeriph_Driver\src\stm32f4xx_tim.o
                                                  STM32F4xx_StdPeriph_Driver\src\stm32f4xx_usart.o
RCC_AdjustHSICalibrationValue                     STM32F4xx_StdPeriph_Driver\src\stm32f4xx_rcc.o
RCC_BackupResetCmd                                STM32F4xx_StdPeriph_Driver\src\stm32f4xx_rcc.o
RCC_ClearFlag                                     STM32F4xx_StdPeriph_Driver\src\stm32f4xx_rcc.o
RCC_ClearITPendingBit                             STM32F4xx_StdPeriph_Driver\src\stm32f4xx_rcc.o
RCC_ClockSecuritySystemCmd                        STM32F4xx_StdPeriph_Driver\src\stm32f4xx_rcc.o
RCC_DeInit                                        STM32F4xx_StdPeriph_Driver\src\stm32f4xx_rcc.o
RCC_GetClocksFreq                                 STM32F4xx_StdPeriph_Driver\src\stm32f4xx_rcc.o
                                                  STM32F4xx_StdPeriph_Driver\src\stm32f4xx_i2c.o
                                                  STM32F4xx_StdPeriph_Driver\src\stm32f4xx_usart.o
RCC_GetFlagStatus                                 STM32F4xx_StdPeriph_Driver\src\stm32f4xx_rcc.o
RCC_GetITStatus                                   STM32F4xx_StdPeriph_Driver\src\stm32f4xx_rcc.o
RCC_GetSYSCLKSource                               STM32F4xx_StdPeriph_Driver\src\stm32f4xx_rcc.o
RCC_HCLKConfig                                    STM32F4xx_StdPeriph_Driver\src\stm32f4xx_rcc.o
RCC_HSEConfig                                     STM32F4xx_StdPeriph_Driver\src\stm32f4xx_rcc.o
RCC_HSICmd                                        STM32F4xx_StdPeriph_Driver\src\stm32f4xx_rcc.o
RCC_I2SCLKConfig                                  STM32F4xx_StdPeriph_Driver\src\stm32f4xx_rcc.o
RCC_IRQHandler                                    startup\startup_stm32f4xx.o
RCC_ITConfig                                      STM32F4xx_StdPeriph_Driver\src\stm32f4xx_rcc.o
RCC_LSEConfig                                     STM32F4xx_StdPeriph_Driver\src\stm32f4xx_rcc.o
RCC_LSICmd                                        STM32F4xx_StdPeriph_Driver\src\stm32f4xx_rcc.o
RCC_MCO1Config                                    STM32F4xx_StdPeriph_Driver\src\stm32f4xx_rcc.o
RCC_MCO2Config                                    STM32F4xx_StdPeriph_Driver\src\stm32f4xx_rcc.o
RCC_PCLK1Config                                   STM32F4xx_StdPeriph_Driver\src\stm32f4xx_rcc.o
RCC_PCLK2Config                                   STM32F4xx_StdPeriph_Driver\src\stm32f4xx_rcc.o
RCC_PLLCmd                                        STM32F4xx_StdPeriph_Driver\src\stm32f4xx_rcc.o
RCC_PLLConfig                                     STM32F4xx_StdPeriph_Driver\src\stm32f4xx_rcc.o
RCC_PLLI2SCmd                                     STM32F4xx_StdPeriph_Driver\src\stm32f4xx_rcc.o
RCC_PLLI2SConfig                                  STM32F4xx_StdPeriph_Driver\src\stm32f4xx_rcc.o
RCC_RTCCLKCmd                                     STM32F4xx_StdPeriph_Driver\src\stm32f4xx_rcc.o
RCC_RTCCLKConfig                                  STM32F4xx_StdPeriph_Driver\src\stm32f4xx_rcc.o
RCC_SYSCLKConfig                                  STM32F4xx_StdPeriph_Driver\src\stm32f4xx_rcc.o
RCC_WaitForHSEStartUp                             STM32F4xx_StdPeriph_Driver\src\stm32f4xx_rcc.o
RFIDInitMinimal                                   RFID\rfid.o
RFIDTagCode                                       RFID\rfid.o
RFIDUserNames                                     RFID\rfid.o
RFIDValidCodes                                    RFID\rfid.o
RNG_ClearFlag                                     STM32F4xx_StdPeriph_Driver\src\stm32f4xx_rng.o
RNG_ClearITPendingBit                             STM32F4xx_StdPeriph_Driver\src\stm32f4xx_rng.o
RNG_Cmd                                           STM32F4xx_StdPeriph_Driver\src\stm32f4xx_rng.o
RNG_DeInit                                        STM32F4xx_StdPeriph_Driver\src\stm32f4xx_rng.o
RNG_GetFlagStatus                                 STM32F4xx_StdPeriph_Driver\src\stm32f4xx_rng.o
RNG_GetITStatus                                   STM32F4xx_StdPeriph_Driver\src\stm32f4xx_rng.o
RNG_GetRandomNumber                               STM32F4xx_StdPeriph_Driver\src\stm32f4xx_rng.o
RNG_ITConfig                                      STM32F4xx_StdPeriph_Driver\src\stm32f4xx_rng.o
RTC_AlarmCmd                                      STM32F4xx_StdPeriph_Driver\src\stm32f4xx_rtc.o
RTC_AlarmStructInit                               STM32F4xx_StdPeriph_Driver\src\stm32f4xx_rtc.o
RTC_AlarmSubSecondConfig                          STM32F4xx_StdPeriph_Driver\src\stm32f4xx_rtc.o
RTC_Alarm_IRQHandler                              startup\startup_stm32f4xx.o
RTC_BypassShadowCmd                               STM32F4xx_StdPeriph_Driver\src\stm32f4xx_rtc.o
RTC_CalibOutputCmd                                STM32F4xx_StdPeriph_Driver\src\stm32f4xx_rtc.o
RTC_CalibOutputConfig                             STM32F4xx_StdPeriph_Driver\src\stm32f4xx_rtc.o
RTC_ClearFlag                                     STM32F4xx_StdPeriph_Driver\src\stm32f4xx_rtc.o
RTC_ClearITPendingBit                             STM32F4xx_StdPeriph_Driver\src\stm32f4xx_rtc.o
RTC_CoarseCalibCmd                                STM32F4xx_StdPeriph_Driver\src\stm32f4xx_rtc.o
RTC_CoarseCalibConfig                             STM32F4xx_StdPeriph_Driver\src\stm32f4xx_rtc.o
RTC_DateStructInit                                STM32F4xx_StdPeriph_Driver\src\stm32f4xx_rtc.o
RTC_DayLightSavingConfig                          STM32F4xx_StdPeriph_Driver\src\stm32f4xx_rtc.o
RTC_DeInit                                        STM32F4xx_StdPeriph_Driver\src\stm32f4xx_rtc.o
RTC_EnterInitMode                                 STM32F4xx_StdPeriph_Driver\src\stm32f4xx_rtc.o
RTC_ExitInitMode                                  STM32F4xx_StdPeriph_Driver\src\stm32f4xx_rtc.o
RTC_GetAlarm                                      STM32F4xx_StdPeriph_Driver\src\stm32f4xx_rtc.o
RTC_GetAlarmSubSecond                             STM32F4xx_StdPeriph_Driver\src\stm32f4xx_rtc.o
RTC_GetDate                                       STM32F4xx_StdPeriph_Driver\src\stm32f4xx_rtc.o
RTC_GetFlagStatus                                 STM32F4xx_StdPeriph_Driver\src\stm32f4xx_rtc.o
RTC_GetITStatus                                   STM32F4xx_StdPeriph_Driver\src\stm32f4xx_rtc.o
RTC_GetStoreOperation                             STM32F4xx_StdPeriph_Driver\src\stm32f4xx_rtc.o
RTC_GetSubSecond                                  STM32F4xx_StdPeriph_Driver\src\stm32f4xx_rtc.o
RTC_GetTime                                       STM32F4xx_StdPeriph_Driver\src\stm32f4xx_rtc.o
RTC_GetTimeStamp                                  STM32F4xx_StdPeriph_Driver\src\stm32f4xx_rtc.o
RTC_GetTimeStampSubSecond                         STM32F4xx_StdPeriph_Driver\src\stm32f4xx_rtc.o
RTC_GetWakeUpCounter                              STM32F4xx_StdPeriph_Driver\src\stm32f4xx_rtc.o
RTC_ITConfig                                      STM32F4xx_StdPeriph_Driver\src\stm32f4xx_rtc.o
RTC_Init                                          STM32F4xx_StdPeriph_Driver\src\stm32f4xx_rtc.o
RTC_OutputConfig                                  STM32F4xx_StdPeriph_Driver\src\stm32f4xx_rtc.o
RTC_OutputTypeConfig                              STM32F4xx_StdPeriph_Driver\src\stm32f4xx_rtc.o
RTC_ReadBackupRegister                            STM32F4xx_StdPeriph_Driver\src\stm32f4xx_rtc.o
RTC_RefClockCmd                                   STM32F4xx_StdPeriph_Driver\src\stm32f4xx_rtc.o
RTC_SetAlarm                                      STM32F4xx_StdPeriph_Driver\src\stm32f4xx_rtc.o
RTC_SetDate                                       STM32F4xx_StdPeriph_Driver\src\stm32f4xx_rtc.o
RTC_SetTime                                       STM32F4xx_StdPeriph_Driver\src\stm32f4xx_rtc.o
RTC_SetWakeUpCounter                              STM32F4xx_StdPeriph_Driver\src\stm32f4xx_rtc.o
RTC_SmoothCalibConfig                             STM32F4xx_StdPeriph_Driver\src\stm32f4xx_rtc.o
RTC_StructInit                                    STM32F4xx_StdPeriph_Driver\src\stm32f4xx_rtc.o
RTC_SynchroShiftConfig                            STM32F4xx_StdPeriph_Driver\src\stm32f4xx_rtc.o
RTC_TamperCmd                                     STM32F4xx_StdPeriph_Driver\src\stm32f4xx_rtc.o
RTC_TamperFilterConfig                            STM32F4xx_StdPeriph_Driver\src\stm32f4xx_rtc.o
RTC_TamperPinSelection                            STM32F4xx_StdPeriph_Driver\src\stm32f4xx_rtc.o
RTC_TamperPinsPrechargeDuration                   STM32F4xx_StdPeriph_Driver\src\stm32f4xx_rtc.o
RTC_TamperPullUpCmd                               STM32F4xx_StdPeriph_Driver\src\stm32f4xx_rtc.o
RTC_TamperSamplingFreqConfig                      STM32F4xx_StdPeriph_Driver\src\stm32f4xx_rtc.o
RTC_TamperTriggerConfig                           STM32F4xx_StdPeriph_Driver\src\stm32f4xx_rtc.o
RTC_TimeStampCmd                                  STM32F4xx_StdPeriph_Driver\src\stm32f4xx_rtc.o
RTC_TimeStampOnTamperDetectionCmd                 STM32F4xx_StdPeriph_Driver\src\stm32f4xx_rtc.o
RTC_TimeStampPinSelection                         STM32F4xx_StdPeriph_Driver\src\stm32f4xx_rtc.o
RTC_TimeStructInit                                STM32F4xx_StdPeriph_Driver\src\stm32f4xx_rtc.o
RTC_WKUP_IRQHandler                               startup\startup_stm32f4xx.o
RTC_WaitForSynchro                                STM32F4xx_StdPeriph_Driver\src\stm32f4xx_rtc.o
RTC_WakeUpClockConfig                             STM32F4xx_StdPeriph_Driver\src\stm32f4xx_rtc.o
RTC_WakeUpCmd                                     STM32F4xx_StdPeriph_Driver\src\stm32f4xx_rtc.o
RTC_WriteBackupRegister                           STM32F4xx_StdPeriph_Driver\src\stm32f4xx_rtc.o
RTC_WriteProtectionCmd                            STM32F4xx_StdPeriph_Driver\src\stm32f4xx_rtc.o
Read_Ads7846                                      User\main.o
Read_X                                            User\main.o
Read_Y                                            User\main.o
Reset_Handler                                     startup\startup_stm32f4xx.o
SDIO_CEATAITCmd                                   STM32F4xx_StdPeriph_Driver\src\stm32f4xx_sdio.o
SDIO_ClearFlag                                    STM32F4xx_StdPeriph_Driver\src\stm32f4xx_sdio.o
SDIO_ClearITPendingBit                            STM32F4xx_StdPeriph_Driver\src\stm32f4xx_sdio.o
SDIO_ClockCmd                                     STM32F4xx_StdPeriph_Driver\src\stm32f4xx_sdio.o
SDIO_CmdStructInit                                STM32F4xx_StdPeriph_Driver\src\stm32f4xx_sdio.o
SDIO_CommandCompletionCmd                         STM32F4xx_StdPeriph_Driver\src\stm32f4xx_sdio.o
SDIO_DMACmd                                       STM32F4xx_StdPeriph_Driver\src\stm32f4xx_sdio.o
SDIO_DataConfig                                   STM32F4xx_StdPeriph_Driver\src\stm32f4xx_sdio.o
SDIO_DataStructInit                               STM32F4xx_StdPeriph_Driver\src\stm32f4xx_sdio.o
SDIO_DeInit                                       STM32F4xx_StdPeriph_Driver\src\stm32f4xx_sdio.o
SDIO_GetCommandResponse                           STM32F4xx_StdPeriph_Driver\src\stm32f4xx_sdio.o
SDIO_GetDataCounter                               STM32F4xx_StdPeriph_Driver\src\stm32f4xx_sdio.o
SDIO_GetFIFOCount                                 STM32F4xx_StdPeriph_Driver\src\stm32f4xx_sdio.o
SDIO_GetFlagStatus                                STM32F4xx_StdPeriph_Driver\src\stm32f4xx_sdio.o
SDIO_GetITStatus                                  STM32F4xx_StdPeriph_Driver\src\stm32f4xx_sdio.o
SDIO_GetPowerState                                STM32F4xx_StdPeriph_Driver\src\stm32f4xx_sdio.o
SDIO_GetResponse                                  STM32F4xx_StdPeriph_Driver\src\stm32f4xx_sdio.o
SDIO_IRQHandler                                   startup\startup_stm32f4xx.o
SDIO_ITConfig                                     STM32F4xx_StdPeriph_Driver\src\stm32f4xx_sdio.o
SDIO_Init                                         STM32F4xx_StdPeriph_Driver\src\stm32f4xx_sdio.o
SDIO_ReadData                                     STM32F4xx_StdPeriph_Driver\src\stm32f4xx_sdio.o
SDIO_SendCEATACmd                                 STM32F4xx_StdPeriph_Driver\src\stm32f4xx_sdio.o
SDIO_SendCommand                                  STM32F4xx_StdPeriph_Driver\src\stm32f4xx_sdio.o
SDIO_SendSDIOSuspendCmd                           STM32F4xx_StdPeriph_Driver\src\stm32f4xx_sdio.o
SDIO_SetPowerState                                STM32F4xx_StdPeriph_Driver\src\stm32f4xx_sdio.o
SDIO_SetSDIOOperation                             STM32F4xx_StdPeriph_Driver\src\stm32f4xx_sdio.o
SDIO_SetSDIOReadWaitMode                          STM32F4xx_StdPeriph_Driver\src\stm32f4xx_sdio.o
SDIO_StartSDIOReadWait                            STM32F4xx_StdPeriph_Driver\src\stm32f4xx_sdio.o
SDIO_StopSDIOReadWait                             STM32F4xx_StdPeriph_Driver\src\stm32f4xx_sdio.o
SDIO_StructInit                                   STM32F4xx_StdPeriph_Driver\src\stm32f4xx_sdio.o
SDIO_WriteData                                    STM32F4xx_StdPeriph_Driver\src\stm32f4xx_sdio.o
SPI1_IRQHandler                                   startup\startup_stm32f4xx.o
SPI2_IRQHandler                                   startup\startup_stm32f4xx.o
SPI3_IRQHandler                                   startup\startup_stm32f4xx.o
SPI_BiDirectionalLineConfig                       STM32F4xx_StdPeriph_Driver\src\stm32f4xx_spi.o
SPI_CalculateCRC                                  STM32F4xx_StdPeriph_Driver\src\stm32f4xx_spi.o
SPI_Cmd                                           STM32F4xx_StdPeriph_Driver\src\stm32f4xx_spi.o
                                                  User\main.o
SPI_DataSizeConfig                                STM32F4xx_StdPeriph_Driver\src\stm32f4xx_spi.o
SPI_GetCRC                                        STM32F4xx_StdPeriph_Driver\src\stm32f4xx_spi.o
SPI_GetCRCPolynomial                              STM32F4xx_StdPeriph_Driver\src\stm32f4xx_spi.o
SPI_I2S_ClearFlag                                 STM32F4xx_StdPeriph_Driver\src\stm32f4xx_spi.o
SPI_I2S_ClearITPendingBit                         STM32F4xx_StdPeriph_Driver\src\stm32f4xx_spi.o
SPI_I2S_DMACmd                                    STM32F4xx_StdPeriph_Driver\src\stm32f4xx_spi.o
SPI_I2S_DeInit                                    STM32F4xx_StdPeriph_Driver\src\stm32f4xx_spi.o
                                                  User\main.o
SPI_I2S_GetFlagStatus                             STM32F4xx_StdPeriph_Driver\src\stm32f4xx_spi.o
                                                  User\main.o
SPI_I2S_GetITStatus                               STM32F4xx_StdPeriph_Driver\src\stm32f4xx_spi.o
SPI_I2S_ITConfig                                  STM32F4xx_StdPeriph_Driver\src\stm32f4xx_spi.o
SPI_I2S_ReceiveData                               STM32F4xx_StdPeriph_Driver\src\stm32f4xx_spi.o
                                                  User\main.o
SPI_I2S_SendData                                  STM32F4xx_StdPeriph_Driver\src\stm32f4xx_spi.o
                                                  User\main.o
SPI_Init                                          STM32F4xx_StdPeriph_Driver\src\stm32f4xx_spi.o
                                                  User\main.o
SPI_NSSInternalSoftwareConfig                     STM32F4xx_StdPeriph_Driver\src\stm32f4xx_spi.o
SPI_SSOutputCmd                                   STM32F4xx_StdPeriph_Driver\src\stm32f4xx_spi.o
SPI_StructInit                                    STM32F4xx_StdPeriph_Driver\src\stm32f4xx_spi.o
SPI_TIModeCmd                                     STM32F4xx_StdPeriph_Driver\src\stm32f4xx_spi.o
SPI_TransmitCRC                                   STM32F4xx_StdPeriph_Driver\src\stm32f4xx_spi.o
STM_EVAL_LEDInit                                  STM32F4-Discovery\stm32f4_discovery.o
STM_EVAL_LEDOff                                   STM32F4-Discovery\stm32f4_discovery.o
                                                  RFID\rfid.o
STM_EVAL_LEDOn                                    STM32F4-Discovery\stm32f4_discovery.o
                                                  RFID\rfid.o
STM_EVAL_LEDToggle                                STM32F4-Discovery\stm32f4_discovery.o
STM_EVAL_PA8Init                                  RFID\rfid.o
STM_EVAL_PBGetState                               STM32F4-Discovery\stm32f4_discovery.o
STM_EVAL_PBInit                                   STM32F4-Discovery\stm32f4_discovery.o
STM_SSDRelay_Off                                  RFID\rfid.o
STM_SSDRelay_On                                   RFID\rfid.o
SVC_Handler                                       FreeRTOS\portable\port.o
                                                  startup\startup_stm32f4xx.o
SYSCFG_CompensationCellCmd                        STM32F4xx_StdPeriph_Driver\src\stm32f4xx_syscfg.o
SYSCFG_DeInit                                     STM32F4xx_StdPeriph_Driver\src\stm32f4xx_syscfg.o
SYSCFG_ETH_MediaInterfaceConfig                   STM32F4xx_StdPeriph_Driver\src\stm32f4xx_syscfg.o
SYSCFG_EXTILineConfig                             STM32F4xx_StdPeriph_Driver\src\stm32f4xx_syscfg.o
                                                  STM32F4-Discovery\stm32f4_discovery.o
SYSCFG_GetCompensationCellStatus                  STM32F4xx_StdPeriph_Driver\src\stm32f4xx_syscfg.o
SYSCFG_MemoryRemapConfig                          STM32F4xx_StdPeriph_Driver\src\stm32f4xx_syscfg.o
ScreenInfo                                        User\main.o
ScreenNormal                                      User\main.o
ScreenOff                                         User\main.o
ScreenRelay                                       User\main.o
ScreenSample                                      User\main.o
ScreenSetTime                                     User\main.o
ScreenSettings                                    User\main.o
SysTick_CLKSourceConfig                           STM32F4xx_StdPeriph_Driver\src\misc.o
SysTick_Handler                                   FreeRTOS\portable\port.o
                                                  startup\startup_stm32f4xx.o
SystemCoreClock                                   User\system_stm32f4xx.o
                                                  FreeRTOS\portable\port.o
                                                  User\main.o
SystemCoreClockUpdate                             User\system_stm32f4xx.o
SystemInit                                        User\system_stm32f4xx.o
                                                  startup\startup_stm32f4xx.o
TAMP_STAMP_IRQHandler                             startup\startup_stm32f4xx.o
TIM1_BRK_TIM9_IRQHandler                          startup\startup_stm32f4xx.o
TIM1_CC_IRQHandler                                startup\startup_stm32f4xx.o
TIM1_TRG_COM_TIM11_IRQHandler                     startup\startup_stm32f4xx.o
TIM1_UP_TIM10_IRQHandler                          startup\startup_stm32f4xx.o
TIM2_IRQHandler                                   startup\startup_stm32f4xx.o
TIM3_IRQHandler                                   startup\startup_stm32f4xx.o
TIM4_IRQHandler                                   startup\startup_stm32f4xx.o
TIM5_IRQHandler                                   startup\startup_stm32f4xx.o
TIM6_DAC_IRQHandler                               startup\startup_stm32f4xx.o
TIM7_IRQHandler                                   startup\startup_stm32f4xx.o
TIM8_BRK_TIM12_IRQHandler                         startup\startup_stm32f4xx.o
TIM8_CC_IRQHandler                                startup\startup_stm32f4xx.o
TIM8_TRG_COM_TIM14_IRQHandler                     startup\startup_stm32f4xx.o
TIM8_UP_TIM13_IRQHandler                          startup\startup_stm32f4xx.o
TIM_ARRPreloadConfig                              STM32F4xx_StdPeriph_Driver\src\stm32f4xx_tim.o
TIM_BDTRConfig                                    STM32F4xx_StdPeriph_Driver\src\stm32f4xx_tim.o
TIM_BDTRStructInit                                STM32F4xx_StdPeriph_Driver\src\stm32f4xx_tim.o
TIM_CCPreloadControl                              STM32F4xx_StdPeriph_Driver\src\stm32f4xx_tim.o
TIM_CCxCmd                                        STM32F4xx_StdPeriph_Driver\src\stm32f4xx_tim.o
TIM_CCxNCmd                                       STM32F4xx_StdPeriph_Driver\src\stm32f4xx_tim.o
TIM_ClearFlag                                     STM32F4xx_StdPeriph_Driver\src\stm32f4xx_tim.o
TIM_ClearITPendingBit                             STM32F4xx_StdPeriph_Driver\src\stm32f4xx_tim.o
TIM_ClearOC1Ref                                   STM32F4xx_StdPeriph_Driver\src\stm32f4xx_tim.o
TIM_ClearOC2Ref                                   STM32F4xx_StdPeriph_Driver\src\stm32f4xx_tim.o
TIM_ClearOC3Ref                                   STM32F4xx_StdPeriph_Driver\src\stm32f4xx_tim.o
TIM_ClearOC4Ref                                   STM32F4xx_StdPeriph_Driver\src\stm32f4xx_tim.o
TIM_Cmd                                           STM32F4xx_StdPeriph_Driver\src\stm32f4xx_tim.o
                                                  User\main.o
TIM_Config                                        User\main.o
TIM_CounterModeConfig                             STM32F4xx_StdPeriph_Driver\src\stm32f4xx_tim.o
TIM_CtrlPWMOutputs                                STM32F4xx_StdPeriph_Driver\src\stm32f4xx_tim.o
                                                  User\main.o
TIM_DMACmd                                        STM32F4xx_StdPeriph_Driver\src\stm32f4xx_tim.o
TIM_DMAConfig                                     STM32F4xx_StdPeriph_Driver\src\stm32f4xx_tim.o
TIM_DeInit                                        STM32F4xx_StdPeriph_Driver\src\stm32f4xx_tim.o
TIM_ETRClockMode1Config                           STM32F4xx_StdPeriph_Driver\src\stm32f4xx_tim.o
TIM_ETRClockMode2Config                           STM32F4xx_StdPeriph_Driver\src\stm32f4xx_tim.o
TIM_ETRConfig                                     STM32F4xx_StdPeriph_Driver\src\stm32f4xx_tim.o
TIM_EncoderInterfaceConfig                        STM32F4xx_StdPeriph_Driver\src\stm32f4xx_tim.o
TIM_ForcedOC1Config                               STM32F4xx_StdPeriph_Driver\src\stm32f4xx_tim.o
TIM_ForcedOC2Config                               STM32F4xx_StdPeriph_Driver\src\stm32f4xx_tim.o
TIM_ForcedOC3Config                               STM32F4xx_StdPeriph_Driver\src\stm32f4xx_tim.o
TIM_ForcedOC4Config                               STM32F4xx_StdPeriph_Driver\src\stm32f4xx_tim.o
TIM_GenerateEvent                                 STM32F4xx_StdPeriph_Driver\src\stm32f4xx_tim.o
TIM_GetCapture1                                   STM32F4xx_StdPeriph_Driver\src\stm32f4xx_tim.o
TIM_GetCapture2                                   STM32F4xx_StdPeriph_Driver\src\stm32f4xx_tim.o
TIM_GetCapture3                                   STM32F4xx_StdPeriph_Driver\src\stm32f4xx_tim.o
TIM_GetCapture4                                   STM32F4xx_StdPeriph_Driver\src\stm32f4xx_tim.o
TIM_GetCounter                                    STM32F4xx_StdPeriph_Driver\src\stm32f4xx_tim.o
TIM_GetFlagStatus                                 STM32F4xx_StdPeriph_Driver\src\stm32f4xx_tim.o
TIM_GetITStatus                                   STM32F4xx_StdPeriph_Driver\src\stm32f4xx_tim.o
TIM_GetPrescaler                                  STM32F4xx_StdPeriph_Driver\src\stm32f4xx_tim.o
TIM_ICInit                                        STM32F4xx_StdPeriph_Driver\src\stm32f4xx_tim.o
TIM_ICStructInit                                  STM32F4xx_StdPeriph_Driver\src\stm32f4xx_tim.o
TIM_ITConfig                                      STM32F4xx_StdPeriph_Driver\src\stm32f4xx_tim.o
TIM_ITRxExternalClockConfig                       STM32F4xx_StdPeriph_Driver\src\stm32f4xx_tim.o
TIM_InternalClockConfig                           STM32F4xx_StdPeriph_Driver\src\stm32f4xx_tim.o
TIM_OC1FastConfig                                 STM32F4xx_StdPeriph_Driver\src\stm32f4xx_tim.o
TIM_OC1Init                                       STM32F4xx_StdPeriph_Driver\src\stm32f4xx_tim.o
TIM_OC1NPolarityConfig                            STM32F4xx_StdPeriph_Driver\src\stm32f4xx_tim.o
TIM_OC1PolarityConfig                             STM32F4xx_StdPeriph_Driver\src\stm32f4xx_tim.o
TIM_OC1PreloadConfig                              STM32F4xx_StdPeriph_Driver\src\stm32f4xx_tim.o
TIM_OC2FastConfig                                 STM32F4xx_StdPeriph_Driver\src\stm32f4xx_tim.o
TIM_OC2Init                                       STM32F4xx_StdPeriph_Driver\src\stm32f4xx_tim.o
TIM_OC2NPolarityConfig                            STM32F4xx_StdPeriph_Driver\src\stm32f4xx_tim.o
TIM_OC2PolarityConfig                             STM32F4xx_StdPeriph_Driver\src\stm32f4xx_tim.o
TIM_OC2PreloadConfig                              STM32F4xx_StdPeriph_Driver\src\stm32f4xx_tim.o
TIM_OC3FastConfig                                 STM32F4xx_StdPeriph_Driver\src\stm32f4xx_tim.o
TIM_OC3Init                                       STM32F4xx_StdPeriph_Driver\src\stm32f4xx_tim.o
                                                  User\main.o
TIM_OC3NPolarityConfig                            STM32F4xx_StdPeriph_Driver\src\stm32f4xx_tim.o
TIM_OC3PolarityConfig                             STM32F4xx_StdPeriph_Driver\src\stm32f4xx_tim.o
TIM_OC3PreloadConfig                              STM32F4xx_StdPeriph_Driver\src\stm32f4xx_tim.o
TIM_OC4FastConfig                                 STM32F4xx_StdPeriph_Driver\src\stm32f4xx_tim.o
TIM_OC4Init                                       STM32F4xx_StdPeriph_Driver\src\stm32f4xx_tim.o
TIM_OC4PolarityConfig                             STM32F4xx_StdPeriph_Driver\src\stm32f4xx_tim.o
TIM_OC4PreloadConfig                              STM32F4xx_StdPeriph_Driver\src\stm32f4xx_tim.o
TIM_OCInitStructure                               User\main.o
TIM_OCStructInit                                  STM32F4xx_StdPeriph_Driver\src\stm32f4xx_tim.o
TIM_PWMIConfig                                    STM32F4xx_StdPeriph_Driver\src\stm32f4xx_tim.o
TIM_PrescalerConfig                               STM32F4xx_StdPeriph_Driver\src\stm32f4xx_tim.o
TIM_RemapConfig                                   STM32F4xx_StdPeriph_Driver\src\stm32f4xx_tim.o
TIM_SelectCCDMA                                   STM32F4xx_StdPeriph_Driver\src\stm32f4xx_tim.o
TIM_SelectCOM                                     STM32F4xx_StdPeriph_Driver\src\stm32f4xx_tim.o
TIM_SelectHallSensor                              STM32F4xx_StdPeriph_Driver\src\stm32f4xx_tim.o
TIM_SelectInputTrigger                            STM32F4xx_StdPeriph_Driver\src\stm32f4xx_tim.o
TIM_SelectMasterSlaveMode                         STM32F4xx_StdPeriph_Driver\src\stm32f4xx_tim.o
TIM_SelectOCxM                                    STM32F4xx_StdPeriph_Driver\src\stm32f4xx_tim.o
TIM_SelectOnePulseMode                            STM32F4xx_StdPeriph_Driver\src\stm32f4xx_tim.o
TIM_SelectOutputTrigger                           STM32F4xx_StdPeriph_Driver\src\stm32f4xx_tim.o
TIM_SelectSlaveMode                               STM32F4xx_StdPeriph_Driver\src\stm32f4xx_tim.o
TIM_SetAutoreload                                 STM32F4xx_StdPeriph_Driver\src\stm32f4xx_tim.o
TIM_SetClockDivision                              STM32F4xx_StdPeriph_Driver\src\stm32f4xx_tim.o
TIM_SetCompare1                                   STM32F4xx_StdPeriph_Driver\src\stm32f4xx_tim.o
TIM_SetCompare2                                   STM32F4xx_StdPeriph_Driver\src\stm32f4xx_tim.o
TIM_SetCompare3                                   STM32F4xx_StdPeriph_Driver\src\stm32f4xx_tim.o
TIM_SetCompare4                                   STM32F4xx_StdPeriph_Driver\src\stm32f4xx_tim.o
TIM_SetCounter                                    STM32F4xx_StdPeriph_Driver\src\stm32f4xx_tim.o
TIM_SetIC1Prescaler                               STM32F4xx_StdPeriph_Driver\src\stm32f4xx_tim.o
TIM_SetIC2Prescaler                               STM32F4xx_StdPeriph_Driver\src\stm32f4xx_tim.o
TIM_SetIC3Prescaler                               STM32F4xx_StdPeriph_Driver\src\stm32f4xx_tim.o
TIM_SetIC4Prescaler                               STM32F4xx_StdPeriph_Driver\src\stm32f4xx_tim.o
TIM_TIxExternalClockConfig                        STM32F4xx_StdPeriph_Driver\src\stm32f4xx_tim.o
TIM_TimeBaseInit                                  STM32F4xx_StdPeriph_Driver\src\stm32f4xx_tim.o
                                                  User\main.o
TIM_TimeBaseStructInit                            STM32F4xx_StdPeriph_Driver\src\stm32f4xx_tim.o
TIM_TimeBaseStructure                             User\main.o
TIM_UpdateDisableConfig                           STM32F4xx_StdPeriph_Driver\src\stm32f4xx_tim.o
TIM_UpdateRequestConfig                           STM32F4xx_StdPeriph_Driver\src\stm32f4xx_tim.o
TP_Delay                                          User\main.o
TP_DrawPoint                                      User\main.o
TP_GetAdXY                                        User\main.o
TP_Init                                           User\main.o
Temperature                                       I2C-DS1621\I2C-DS1621.o
TextColor                                         User\main.o
TimerPeriod                                       User\main.o
TouchPanel_Calibrate                              User\main.o
UART4_IRQHandler                                  startup\startup_stm32f4xx.o
UART5_IRQHandler                                  startup\startup_stm32f4xx.o
USART1_IRQHandler                                 startup\startup_stm32f4xx.o
USART2_IRQHandler                                 startup\startup_stm32f4xx.o
USART3_Config                                     RFID\rfid.o
USART3_IRQHandler                                 RFID\rfid.o
                                                  startup\startup_stm32f4xx.o
USART6_IRQHandler                                 startup\startup_stm32f4xx.o
USART_ClearFlag                                   STM32F4xx_StdPeriph_Driver\src\stm32f4xx_usart.o
                                                  User\main.o
USART_ClearITPendingBit                           STM32F4xx_StdPeriph_Driver\src\stm32f4xx_usart.o
USART_ClockInit                                   STM32F4xx_StdPeriph_Driver\src\stm32f4xx_usart.o
                                                  RFID\rfid.o
USART_ClockStructInit                             STM32F4xx_StdPeriph_Driver\src\stm32f4xx_usart.o
                                                  RFID\rfid.o
USART_Cmd                                         STM32F4xx_StdPeriph_Driver\src\stm32f4xx_usart.o
                                                  RFID\rfid.o
                                                  User\main.o
USART_DMACmd                                      STM32F4xx_StdPeriph_Driver\src\stm32f4xx_usart.o
USART_DeInit                                      STM32F4xx_StdPeriph_Driver\src\stm32f4xx_usart.o
USART_GetFlagStatus                               STM32F4xx_StdPeriph_Driver\src\stm32f4xx_usart.o
                                                  User\main.o
USART_GetITStatus                                 STM32F4xx_StdPeriph_Driver\src\stm32f4xx_usart.o
                                                  RFID\rfid.o
USART_HalfDuplexCmd                               STM32F4xx_StdPeriph_Driver\src\stm32f4xx_usart.o
                                                  User\main.o
USART_ITConfig                                    STM32F4xx_StdPeriph_Driver\src\stm32f4xx_usart.o
                                                  RFID\rfid.o
USART_Init                                        STM32F4xx_StdPeriph_Driver\src\stm32f4xx_usart.o
                                                  RFID\rfid.o
                                                  User\main.o
USART_IrDACmd                                     STM32F4xx_StdPeriph_Driver\src\stm32f4xx_usart.o
USART_IrDAConfig                                  STM32F4xx_StdPeriph_Driver\src\stm32f4xx_usart.o
USART_LINBreakDetectLengthConfig                  STM32F4xx_StdPeriph_Driver\src\stm32f4xx_usart.o
USART_LINCmd                                      STM32F4xx_StdPeriph_Driver\src\stm32f4xx_usart.o
USART_OneBitMethodCmd                             STM32F4xx_StdPeriph_Driver\src\stm32f4xx_usart.o
USART_OverSampling8Cmd                            STM32F4xx_StdPeriph_Driver\src\stm32f4xx_usart.o
USART_ReceiveData                                 STM32F4xx_StdPeriph_Driver\src\stm32f4xx_usart.o
                                                  RFID\rfid.o
                                                  User\main.o
USART_ReceiverWakeUpCmd                           STM32F4xx_StdPeriph_Driver\src\stm32f4xx_usart.o
USART_SendBreak                                   STM32F4xx_StdPeriph_Driver\src\stm32f4xx_usart.o
USART_SendData                                    STM32F4xx_StdPeriph_Driver\src\stm32f4xx_usart.o
                                                  User\main.o
USART_SetAddress                                  STM32F4xx_StdPeriph_Driver\src\stm32f4xx_usart.o
USART_SetGuardTime                                STM32F4xx_StdPeriph_Driver\src\stm32f4xx_usart.o
USART_SetPrescaler                                STM32F4xx_StdPeriph_Driver\src\stm32f4xx_usart.o
USART_SmartCardCmd                                STM32F4xx_StdPeriph_Driver\src\stm32f4xx_usart.o
USART_SmartCardNACKCmd                            STM32F4xx_StdPeriph_Driver\src\stm32f4xx_usart.o
USART_StructInit                                  STM32F4xx_StdPeriph_Driver\src\stm32f4xx_usart.o
                                                  User\main.o
USART_WakeUpConfig                                STM32F4xx_StdPeriph_Driver\src\stm32f4xx_usart.o
UsageFault_Handler                                User\stm32f4xx_it.o
                                                  startup\startup_stm32f4xx.o
WWDG_ClearFlag                                    STM32F4xx_StdPeriph_Driver\src\stm32f4xx_wwdg.o
WWDG_DeInit                                       STM32F4xx_StdPeriph_Driver\src\stm32f4xx_wwdg.o
WWDG_Enable                                       STM32F4xx_StdPeriph_Driver\src\stm32f4xx_wwdg.o
WWDG_EnableIT                                     STM32F4xx_StdPeriph_Driver\src\stm32f4xx_wwdg.o
WWDG_GetFlagStatus                                STM32F4xx_StdPeriph_Driver\src\stm32f4xx_wwdg.o
WWDG_IRQHandler                                   startup\startup_stm32f4xx.o
WWDG_SetCounter                                   STM32F4xx_StdPeriph_Driver\src\stm32f4xx_wwdg.o
WWDG_SetPrescaler                                 STM32F4xx_StdPeriph_Driver\src\stm32f4xx_wwdg.o
WWDG_SetWindowValue                               STM32F4xx_StdPeriph_Driver\src\stm32f4xx_wwdg.o
_Balloc                                           c:/program files (x86)/codesourcery/sourcery g++ lite/bin/../lib/gcc/arm-none-eabi/4.4.1/../../../../arm-none-eabi/lib/thumb2\libc.a(lib_a-mprec.o)
                                                  c:/program files (x86)/codesourcery/sourcery g++ lite/bin/../lib/gcc/arm-none-eabi/4.4.1/../../../../arm-none-eabi/lib/thumb2\libc.a(lib_a-dtoa.o)
_Bfree                                            c:/program files (x86)/codesourcery/sourcery g++ lite/bin/../lib/gcc/arm-none-eabi/4.4.1/../../../../arm-none-eabi/lib/thumb2\libc.a(lib_a-mprec.o)
                                                  c:/program files (x86)/codesourcery/sourcery g++ lite/bin/../lib/gcc/arm-none-eabi/4.4.1/../../../../arm-none-eabi/lib/thumb2\libc.a(lib_a-dtoa.o)
_Jv_RegisterClasses                               c:/program files (x86)/codesourcery/sourcery g++ lite/bin/../lib/gcc/arm-none-eabi/4.4.1/thumb2/crtbegin.o
_PathLocale                                       c:/program files (x86)/codesourcery/sourcery g++ lite/bin/../lib/gcc/arm-none-eabi/4.4.1/../../../../arm-none-eabi/lib/thumb2\libc.a(lib_a-locale.o)
__adddf3                                          c:/program files (x86)/codesourcery/sourcery g++ lite/bin/../lib/gcc/arm-none-eabi/4.4.1/thumb2\libgcc.a(_arm_addsubdf3.o)
__addsf3                                          c:/program files (x86)/codesourcery/sourcery g++ lite/bin/../lib/gcc/arm-none-eabi/4.4.1/thumb2\libgcc.a(_arm_addsubsf3.o)
__aeabi_cdcmpeq                                   c:/program files (x86)/codesourcery/sourcery g++ lite/bin/../lib/gcc/arm-none-eabi/4.4.1/thumb2\libgcc.a(_arm_cmpdf2.o)
__aeabi_cdcmple                                   c:/program files (x86)/codesourcery/sourcery g++ lite/bin/../lib/gcc/arm-none-eabi/4.4.1/thumb2\libgcc.a(_arm_cmpdf2.o)
__aeabi_cdrcmple                                  c:/program files (x86)/codesourcery/sourcery g++ lite/bin/../lib/gcc/arm-none-eabi/4.4.1/thumb2\libgcc.a(_arm_cmpdf2.o)
__aeabi_d2iz                                      c:/program files (x86)/codesourcery/sourcery g++ lite/bin/../lib/gcc/arm-none-eabi/4.4.1/thumb2\libgcc.a(_arm_fixdfsi.o)
                                                  c:/program files (x86)/codesourcery/sourcery g++ lite/bin/../lib/gcc/arm-none-eabi/4.4.1/../../../../arm-none-eabi/lib/thumb2\libc.a(lib_a-dtoa.o)
__aeabi_dadd                                      c:/program files (x86)/codesourcery/sourcery g++ lite/bin/../lib/gcc/arm-none-eabi/4.4.1/thumb2\libgcc.a(_arm_addsubdf3.o)
                                                  c:/program files (x86)/codesourcery/sourcery g++ lite/bin/../lib/gcc/arm-none-eabi/4.4.1/../../../../arm-none-eabi/lib/thumb2\libc.a(lib_a-dtoa.o)
__aeabi_dcmpeq                                    c:/program files (x86)/codesourcery/sourcery g++ lite/bin/../lib/gcc/arm-none-eabi/4.4.1/thumb2\libgcc.a(_arm_cmpdf2.o)
                                                  c:/program files (x86)/codesourcery/sourcery g++ lite/bin/../lib/gcc/arm-none-eabi/4.4.1/../../../../arm-none-eabi/lib/thumb2\libc.a(lib_a-dtoa.o)
                                                  c:/program files (x86)/codesourcery/sourcery g++ lite/bin/../lib/gcc/arm-none-eabi/4.4.1/../../../../arm-none-eabi/lib/thumb2\libc.a(lib_a-svfprintf.o)
__aeabi_dcmpge                                    c:/program files (x86)/codesourcery/sourcery g++ lite/bin/../lib/gcc/arm-none-eabi/4.4.1/thumb2\libgcc.a(_arm_cmpdf2.o)
                                                  c:/program files (x86)/codesourcery/sourcery g++ lite/bin/../lib/gcc/arm-none-eabi/4.4.1/../../../../arm-none-eabi/lib/thumb2\libc.a(lib_a-dtoa.o)
                                                  User\main.o
__aeabi_dcmpgt                                    c:/program files (x86)/codesourcery/sourcery g++ lite/bin/../lib/gcc/arm-none-eabi/4.4.1/thumb2\libgcc.a(_arm_cmpdf2.o)
                                                  c:/program files (x86)/codesourcery/sourcery g++ lite/bin/../lib/gcc/arm-none-eabi/4.4.1/../../../../arm-none-eabi/lib/thumb2\libc.a(lib_a-dtoa.o)
__aeabi_dcmple                                    c:/program files (x86)/codesourcery/sourcery g++ lite/bin/../lib/gcc/arm-none-eabi/4.4.1/thumb2\libgcc.a(_arm_cmpdf2.o)
__aeabi_dcmplt                                    c:/program files (x86)/codesourcery/sourcery g++ lite/bin/../lib/gcc/arm-none-eabi/4.4.1/thumb2\libgcc.a(_arm_cmpdf2.o)
                                                  c:/program files (x86)/codesourcery/sourcery g++ lite/bin/../lib/gcc/arm-none-eabi/4.4.1/../../../../arm-none-eabi/lib/thumb2\libc.a(lib_a-dtoa.o)
                                                  c:/program files (x86)/codesourcery/sourcery g++ lite/bin/../lib/gcc/arm-none-eabi/4.4.1/../../../../arm-none-eabi/lib/thumb2\libc.a(lib_a-svfprintf.o)
                                                  User\main.o
__aeabi_ddiv                                      c:/program files (x86)/codesourcery/sourcery g++ lite/bin/../lib/gcc/arm-none-eabi/4.4.1/thumb2\libgcc.a(_arm_muldivdf3.o)
                                                  c:/program files (x86)/codesourcery/sourcery g++ lite/bin/../lib/gcc/arm-none-eabi/4.4.1/../../../../arm-none-eabi/lib/thumb2\libc.a(lib_a-mprec.o)
                                                  c:/program files (x86)/codesourcery/sourcery g++ lite/bin/../lib/gcc/arm-none-eabi/4.4.1/../../../../arm-none-eabi/lib/thumb2\libc.a(lib_a-dtoa.o)
__aeabi_dmul                                      c:/program files (x86)/codesourcery/sourcery g++ lite/bin/../lib/gcc/arm-none-eabi/4.4.1/thumb2\libgcc.a(_arm_muldivdf3.o)
                                                  c:/program files (x86)/codesourcery/sourcery g++ lite/bin/../lib/gcc/arm-none-eabi/4.4.1/../../../../arm-none-eabi/lib/thumb2\libc.a(lib_a-mprec.o)
                                                  c:/program files (x86)/codesourcery/sourcery g++ lite/bin/../lib/gcc/arm-none-eabi/4.4.1/../../../../arm-none-eabi/lib/thumb2\libc.a(lib_a-dtoa.o)
__aeabi_drsub                                     c:/program files (x86)/codesourcery/sourcery g++ lite/bin/../lib/gcc/arm-none-eabi/4.4.1/thumb2\libgcc.a(_arm_addsubdf3.o)
__aeabi_dsub                                      c:/program files (x86)/codesourcery/sourcery g++ lite/bin/../lib/gcc/arm-none-eabi/4.4.1/thumb2\libgcc.a(_arm_addsubdf3.o)
                                                  c:/program files (x86)/codesourcery/sourcery g++ lite/bin/../lib/gcc/arm-none-eabi/4.4.1/../../../../arm-none-eabi/lib/thumb2\libc.a(lib_a-dtoa.o)
__aeabi_f2d                                       c:/program files (x86)/codesourcery/sourcery g++ lite/bin/../lib/gcc/arm-none-eabi/4.4.1/thumb2\libgcc.a(_arm_addsubdf3.o)
__aeabi_f2iz                                      c:/program files (x86)/codesourcery/sourcery g++ lite/bin/../lib/gcc/arm-none-eabi/4.4.1/thumb2\libgcc.a(_arm_fixsfsi.o)
                                                  User\main.o
__aeabi_fadd                                      c:/program files (x86)/codesourcery/sourcery g++ lite/bin/../lib/gcc/arm-none-eabi/4.4.1/thumb2\libgcc.a(_arm_addsubsf3.o)
__aeabi_frsub                                     c:/program files (x86)/codesourcery/sourcery g++ lite/bin/../lib/gcc/arm-none-eabi/4.4.1/thumb2\libgcc.a(_arm_addsubsf3.o)
__aeabi_fsub                                      c:/program files (x86)/codesourcery/sourcery g++ lite/bin/../lib/gcc/arm-none-eabi/4.4.1/thumb2\libgcc.a(_arm_addsubsf3.o)
__aeabi_i2d                                       c:/program files (x86)/codesourcery/sourcery g++ lite/bin/../lib/gcc/arm-none-eabi/4.4.1/thumb2\libgcc.a(_arm_addsubdf3.o)
                                                  c:/program files (x86)/codesourcery/sourcery g++ lite/bin/../lib/gcc/arm-none-eabi/4.4.1/../../../../arm-none-eabi/lib/thumb2\libc.a(lib_a-dtoa.o)
                                                  User\main.o
__aeabi_i2f                                       c:/program files (x86)/codesourcery/sourcery g++ lite/bin/../lib/gcc/arm-none-eabi/4.4.1/thumb2\libgcc.a(_arm_addsubsf3.o)
                                                  User\main.o
__aeabi_idiv0                                     c:/program files (x86)/codesourcery/sourcery g++ lite/bin/../lib/gcc/arm-none-eabi/4.4.1/thumb2\libgcc.a(_dvmd_tls.o)
                                                  c:/program files (x86)/codesourcery/sourcery g++ lite/bin/../lib/gcc/arm-none-eabi/4.4.1/thumb2\libgcc.a(_udivsi3.o)
__aeabi_l2d                                       c:/program files (x86)/codesourcery/sourcery g++ lite/bin/../lib/gcc/arm-none-eabi/4.4.1/thumb2\libgcc.a(_arm_addsubdf3.o)
__aeabi_l2f                                       c:/program files (x86)/codesourcery/sourcery g++ lite/bin/../lib/gcc/arm-none-eabi/4.4.1/thumb2\libgcc.a(_arm_addsubsf3.o)
__aeabi_ldiv0                                     c:/program files (x86)/codesourcery/sourcery g++ lite/bin/../lib/gcc/arm-none-eabi/4.4.1/thumb2\libgcc.a(_dvmd_tls.o)
                                                  c:/program files (x86)/codesourcery/sourcery g++ lite/bin/../lib/gcc/arm-none-eabi/4.4.1/thumb2\libgcc.a(_aeabi_uldivmod.o)
__aeabi_ui2d                                      c:/program files (x86)/codesourcery/sourcery g++ lite/bin/../lib/gcc/arm-none-eabi/4.4.1/thumb2\libgcc.a(_arm_addsubdf3.o)
                                                  c:/program files (x86)/codesourcery/sourcery g++ lite/bin/../lib/gcc/arm-none-eabi/4.4.1/../../../../arm-none-eabi/lib/thumb2\libc.a(lib_a-dtoa.o)
                                                  User\main.o
__aeabi_ui2f                                      c:/program files (x86)/codesourcery/sourcery g++ lite/bin/../lib/gcc/arm-none-eabi/4.4.1/thumb2\libgcc.a(_arm_addsubsf3.o)
__aeabi_uidiv                                     c:/program files (x86)/codesourcery/sourcery g++ lite/bin/../lib/gcc/arm-none-eabi/4.4.1/thumb2\libgcc.a(_udivsi3.o)
                                                  c:/program files (x86)/codesourcery/sourcery g++ lite/bin/../lib/gcc/arm-none-eabi/4.4.1/thumb2\libgcc.a(_udivdi3.o)
                                                  c:/program files (x86)/codesourcery/sourcery g++ lite/bin/../lib/gcc/arm-none-eabi/4.4.1/thumb2\libgcc.a(_divdi3.o)
                                                  c:/program files (x86)/codesourcery/sourcery g++ lite/bin/../lib/gcc/arm-none-eabi/4.4.1/../../../../arm-none-eabi/lib/thumb2\libc.a(lib_a-dtoa.o)
__aeabi_uidivmod                                  c:/program files (x86)/codesourcery/sourcery g++ lite/bin/../lib/gcc/arm-none-eabi/4.4.1/thumb2\libgcc.a(_udivsi3.o)
                                                  c:/program files (x86)/codesourcery/sourcery g++ lite/bin/../lib/gcc/arm-none-eabi/4.4.1/thumb2\libgcc.a(_udivdi3.o)
                                                  c:/program files (x86)/codesourcery/sourcery g++ lite/bin/../lib/gcc/arm-none-eabi/4.4.1/thumb2\libgcc.a(_divdi3.o)
__aeabi_ul2d                                      c:/program files (x86)/codesourcery/sourcery g++ lite/bin/../lib/gcc/arm-none-eabi/4.4.1/thumb2\libgcc.a(_arm_addsubdf3.o)
__aeabi_ul2f                                      c:/program files (x86)/codesourcery/sourcery g++ lite/bin/../lib/gcc/arm-none-eabi/4.4.1/thumb2\libgcc.a(_arm_addsubsf3.o)
__aeabi_uldivmod                                  c:/program files (x86)/codesourcery/sourcery g++ lite/bin/../lib/gcc/arm-none-eabi/4.4.1/thumb2\libgcc.a(_aeabi_uldivmod.o)
                                                  c:/program files (x86)/codesourcery/sourcery g++ lite/bin/../lib/gcc/arm-none-eabi/4.4.1/../../../../arm-none-eabi/lib/thumb2\libc.a(lib_a-svfprintf.o)
__any_on                                          c:/program files (x86)/codesourcery/sourcery g++ lite/bin/../lib/gcc/arm-none-eabi/4.4.1/../../../../arm-none-eabi/lib/thumb2\libc.a(lib_a-mprec.o)
__b2d                                             c:/program files (x86)/codesourcery/sourcery g++ lite/bin/../lib/gcc/arm-none-eabi/4.4.1/../../../../arm-none-eabi/lib/thumb2\libc.a(lib_a-mprec.o)
__cmpdf2                                          c:/program files (x86)/codesourcery/sourcery g++ lite/bin/../lib/gcc/arm-none-eabi/4.4.1/thumb2\libgcc.a(_arm_cmpdf2.o)
__copybits                                        c:/program files (x86)/codesourcery/sourcery g++ lite/bin/../lib/gcc/arm-none-eabi/4.4.1/../../../../arm-none-eabi/lib/thumb2\libc.a(lib_a-mprec.o)
__d2b                                             c:/program files (x86)/codesourcery/sourcery g++ lite/bin/../lib/gcc/arm-none-eabi/4.4.1/../../../../arm-none-eabi/lib/thumb2\libc.a(lib_a-mprec.o)
                                                  c:/program files (x86)/codesourcery/sourcery g++ lite/bin/../lib/gcc/arm-none-eabi/4.4.1/../../../../arm-none-eabi/lib/thumb2\libc.a(lib_a-dtoa.o)
__divdf3                                          c:/program files (x86)/codesourcery/sourcery g++ lite/bin/../lib/gcc/arm-none-eabi/4.4.1/thumb2\libgcc.a(_arm_muldivdf3.o)
__divdi3                                          c:/program files (x86)/codesourcery/sourcery g++ lite/bin/../lib/gcc/arm-none-eabi/4.4.1/thumb2\libgcc.a(_divdi3.o)
                                                  c:/program files (x86)/codesourcery/sourcery g++ lite/bin/../lib/gcc/arm-none-eabi/4.4.1/thumb2\libgcc.a(bpabi.o)
__dso_handle                                      c:/program files (x86)/codesourcery/sourcery g++ lite/bin/../lib/gcc/arm-none-eabi/4.4.1/thumb2/crtbegin.o
__eqdf2                                           c:/program files (x86)/codesourcery/sourcery g++ lite/bin/../lib/gcc/arm-none-eabi/4.4.1/thumb2\libgcc.a(_arm_cmpdf2.o)
__errno                                           c:/program files (x86)/codesourcery/sourcery g++ lite/bin/../lib/gcc/arm-none-eabi/4.4.1/../../../../arm-none-eabi/lib/thumb2\libc.a(lib_a-errno.o)
                                                  Utils\syscalls-stubs.o
__extendsfdf2                                     c:/program files (x86)/codesourcery/sourcery g++ lite/bin/../lib/gcc/arm-none-eabi/4.4.1/thumb2\libgcc.a(_arm_addsubdf3.o)
__fixdfsi                                         c:/program files (x86)/codesourcery/sourcery g++ lite/bin/../lib/gcc/arm-none-eabi/4.4.1/thumb2\libgcc.a(_arm_fixdfsi.o)
__fixsfsi                                         c:/program files (x86)/codesourcery/sourcery g++ lite/bin/../lib/gcc/arm-none-eabi/4.4.1/thumb2\libgcc.a(_arm_fixsfsi.o)
__floatdidf                                       c:/program files (x86)/codesourcery/sourcery g++ lite/bin/../lib/gcc/arm-none-eabi/4.4.1/thumb2\libgcc.a(_arm_addsubdf3.o)
__floatdisf                                       c:/program files (x86)/codesourcery/sourcery g++ lite/bin/../lib/gcc/arm-none-eabi/4.4.1/thumb2\libgcc.a(_arm_addsubsf3.o)
__floatsidf                                       c:/program files (x86)/codesourcery/sourcery g++ lite/bin/../lib/gcc/arm-none-eabi/4.4.1/thumb2\libgcc.a(_arm_addsubdf3.o)
__floatsisf                                       c:/program files (x86)/codesourcery/sourcery g++ lite/bin/../lib/gcc/arm-none-eabi/4.4.1/thumb2\libgcc.a(_arm_addsubsf3.o)
__floatundidf                                     c:/program files (x86)/codesourcery/sourcery g++ lite/bin/../lib/gcc/arm-none-eabi/4.4.1/thumb2\libgcc.a(_arm_addsubdf3.o)
__floatundisf                                     c:/program files (x86)/codesourcery/sourcery g++ lite/bin/../lib/gcc/arm-none-eabi/4.4.1/thumb2\libgcc.a(_arm_addsubsf3.o)
__floatunsidf                                     c:/program files (x86)/codesourcery/sourcery g++ lite/bin/../lib/gcc/arm-none-eabi/4.4.1/thumb2\libgcc.a(_arm_addsubdf3.o)
__floatunsisf                                     c:/program files (x86)/codesourcery/sourcery g++ lite/bin/../lib/gcc/arm-none-eabi/4.4.1/thumb2\libgcc.a(_arm_addsubsf3.o)
__gedf2                                           c:/program files (x86)/codesourcery/sourcery g++ lite/bin/../lib/gcc/arm-none-eabi/4.4.1/thumb2\libgcc.a(_arm_cmpdf2.o)
__gnu_ldivmod_helper                              c:/program files (x86)/codesourcery/sourcery g++ lite/bin/../lib/gcc/arm-none-eabi/4.4.1/thumb2\libgcc.a(bpabi.o)
__gnu_uldivmod_helper                             c:/program files (x86)/codesourcery/sourcery g++ lite/bin/../lib/gcc/arm-none-eabi/4.4.1/thumb2\libgcc.a(bpabi.o)
                                                  c:/program files (x86)/codesourcery/sourcery g++ lite/bin/../lib/gcc/arm-none-eabi/4.4.1/thumb2\libgcc.a(_aeabi_uldivmod.o)
__gtdf2                                           c:/program files (x86)/codesourcery/sourcery g++ lite/bin/../lib/gcc/arm-none-eabi/4.4.1/thumb2\libgcc.a(_arm_cmpdf2.o)
__hi0bits                                         c:/program files (x86)/codesourcery/sourcery g++ lite/bin/../lib/gcc/arm-none-eabi/4.4.1/../../../../arm-none-eabi/lib/thumb2\libc.a(lib_a-mprec.o)
                                                  c:/program files (x86)/codesourcery/sourcery g++ lite/bin/../lib/gcc/arm-none-eabi/4.4.1/../../../../arm-none-eabi/lib/thumb2\libc.a(lib_a-dtoa.o)
__i2b                                             c:/program files (x86)/codesourcery/sourcery g++ lite/bin/../lib/gcc/arm-none-eabi/4.4.1/../../../../arm-none-eabi/lib/thumb2\libc.a(lib_a-mprec.o)
                                                  c:/program files (x86)/codesourcery/sourcery g++ lite/bin/../lib/gcc/arm-none-eabi/4.4.1/../../../../arm-none-eabi/lib/thumb2\libc.a(lib_a-dtoa.o)
__init_array_end                                  c:/program files (x86)/codesourcery/sourcery g++ lite/bin/../lib/gcc/arm-none-eabi/4.4.1/../../../../arm-none-eabi/lib/thumb2\libc.a(lib_a-init.o)
__init_array_start                                c:/program files (x86)/codesourcery/sourcery g++ lite/bin/../lib/gcc/arm-none-eabi/4.4.1/../../../../arm-none-eabi/lib/thumb2\libc.a(lib_a-init.o)
__isinfd                                          c:/program files (x86)/codesourcery/sourcery g++ lite/bin/../lib/gcc/arm-none-eabi/4.4.1/../../../../arm-none-eabi/lib/thumb2\libc.a(lib_a-s_isinfd.o)
                                                  c:/program files (x86)/codesourcery/sourcery g++ lite/bin/../lib/gcc/arm-none-eabi/4.4.1/../../../../arm-none-eabi/lib/thumb2\libc.a(lib_a-svfprintf.o)
__isnand                                          c:/program files (x86)/codesourcery/sourcery g++ lite/bin/../lib/gcc/arm-none-eabi/4.4.1/../../../../arm-none-eabi/lib/thumb2\libc.a(lib_a-s_isnand.o)
                                                  c:/program files (x86)/codesourcery/sourcery g++ lite/bin/../lib/gcc/arm-none-eabi/4.4.1/../../../../arm-none-eabi/lib/thumb2\libc.a(lib_a-svfprintf.o)
__lc_ctype                                        c:/program files (x86)/codesourcery/sourcery g++ lite/bin/../lib/gcc/arm-none-eabi/4.4.1/../../../../arm-none-eabi/lib/thumb2\libc.a(lib_a-locale.o)
__ledf2                                           c:/program files (x86)/codesourcery/sourcery g++ lite/bin/../lib/gcc/arm-none-eabi/4.4.1/thumb2\libgcc.a(_arm_cmpdf2.o)
__libc_init_array                                 c:/program files (x86)/codesourcery/sourcery g++ lite/bin/../lib/gcc/arm-none-eabi/4.4.1/../../../../arm-none-eabi/lib/thumb2\libc.a(lib_a-init.o)
                                                  startup\startup_stm32f4xx.o
__lo0bits                                         c:/program files (x86)/codesourcery/sourcery g++ lite/bin/../lib/gcc/arm-none-eabi/4.4.1/../../../../arm-none-eabi/lib/thumb2\libc.a(lib_a-mprec.o)
__locale_charset                                  c:/program files (x86)/codesourcery/sourcery g++ lite/bin/../lib/gcc/arm-none-eabi/4.4.1/../../../../arm-none-eabi/lib/thumb2\libc.a(lib_a-locale.o)
__lshift                                          c:/program files (x86)/codesourcery/sourcery g++ lite/bin/../lib/gcc/arm-none-eabi/4.4.1/../../../../arm-none-eabi/lib/thumb2\libc.a(lib_a-mprec.o)
                                                  c:/program files (x86)/codesourcery/sourcery g++ lite/bin/../lib/gcc/arm-none-eabi/4.4.1/../../../../arm-none-eabi/lib/thumb2\libc.a(lib_a-dtoa.o)
__ltdf2                                           c:/program files (x86)/codesourcery/sourcery g++ lite/bin/../lib/gcc/arm-none-eabi/4.4.1/thumb2\libgcc.a(_arm_cmpdf2.o)
__malloc_av_                                      c:/program files (x86)/codesourcery/sourcery g++ lite/bin/../lib/gcc/arm-none-eabi/4.4.1/../../../../arm-none-eabi/lib/thumb2\libc.a(lib_a-mallocr.o)
                                                  c:/program files (x86)/codesourcery/sourcery g++ lite/bin/../lib/gcc/arm-none-eabi/4.4.1/../../../../arm-none-eabi/lib/thumb2\libc.a(lib_a-reallocr.o)
                                                  c:/program files (x86)/codesourcery/sourcery g++ lite/bin/../lib/gcc/arm-none-eabi/4.4.1/../../../../arm-none-eabi/lib/thumb2\libc.a(lib_a-freer.o)
__malloc_current_mallinfo                         c:/program files (x86)/codesourcery/sourcery g++ lite/bin/../lib/gcc/arm-none-eabi/4.4.1/../../../../arm-none-eabi/lib/thumb2\libc.a(lib_a-mallocr.o)
                                                  c:/program files (x86)/codesourcery/sourcery g++ lite/bin/../lib/gcc/arm-none-eabi/4.4.1/../../../../arm-none-eabi/lib/thumb2\libc.a(lib_a-freer.o)
__malloc_lock                                     c:/program files (x86)/codesourcery/sourcery g++ lite/bin/../lib/gcc/arm-none-eabi/4.4.1/../../../../arm-none-eabi/lib/thumb2\libc.a(lib_a-mlock.o)
                                                  c:/program files (x86)/codesourcery/sourcery g++ lite/bin/../lib/gcc/arm-none-eabi/4.4.1/../../../../arm-none-eabi/lib/thumb2\libc.a(lib_a-reallocr.o)
                                                  c:/program files (x86)/codesourcery/sourcery g++ lite/bin/../lib/gcc/arm-none-eabi/4.4.1/../../../../arm-none-eabi/lib/thumb2\libc.a(lib_a-mallocr.o)
                                                  c:/program files (x86)/codesourcery/sourcery g++ lite/bin/../lib/gcc/arm-none-eabi/4.4.1/../../../../arm-none-eabi/lib/thumb2\libc.a(lib_a-freer.o)
__malloc_max_sbrked_mem                           c:/program files (x86)/codesourcery/sourcery g++ lite/bin/../lib/gcc/arm-none-eabi/4.4.1/../../../../arm-none-eabi/lib/thumb2\libc.a(lib_a-mallocr.o)
__malloc_max_total_mem                            c:/program files (x86)/codesourcery/sourcery g++ lite/bin/../lib/gcc/arm-none-eabi/4.4.1/../../../../arm-none-eabi/lib/thumb2\libc.a(lib_a-mallocr.o)
__malloc_sbrk_base                                c:/program files (x86)/codesourcery/sourcery g++ lite/bin/../lib/gcc/arm-none-eabi/4.4.1/../../../../arm-none-eabi/lib/thumb2\libc.a(lib_a-mallocr.o)
                                                  c:/program files (x86)/codesourcery/sourcery g++ lite/bin/../lib/gcc/arm-none-eabi/4.4.1/../../../../arm-none-eabi/lib/thumb2\libc.a(lib_a-freer.o)
__malloc_top_pad                                  c:/program files (x86)/codesourcery/sourcery g++ lite/bin/../lib/gcc/arm-none-eabi/4.4.1/../../../../arm-none-eabi/lib/thumb2\libc.a(lib_a-mallocr.o)
                                                  c:/program files (x86)/codesourcery/sourcery g++ lite/bin/../lib/gcc/arm-none-eabi/4.4.1/../../../../arm-none-eabi/lib/thumb2\libc.a(lib_a-freer.o)
__malloc_trim_threshold                           c:/program files (x86)/codesourcery/sourcery g++ lite/bin/../lib/gcc/arm-none-eabi/4.4.1/../../../../arm-none-eabi/lib/thumb2\libc.a(lib_a-mallocr.o)
                                                  c:/program files (x86)/codesourcery/sourcery g++ lite/bin/../lib/gcc/arm-none-eabi/4.4.1/../../../../arm-none-eabi/lib/thumb2\libc.a(lib_a-freer.o)
__malloc_unlock                                   c:/program files (x86)/codesourcery/sourcery g++ lite/bin/../lib/gcc/arm-none-eabi/4.4.1/../../../../arm-none-eabi/lib/thumb2\libc.a(lib_a-mlock.o)
                                                  c:/program files (x86)/codesourcery/sourcery g++ lite/bin/../lib/gcc/arm-none-eabi/4.4.1/../../../../arm-none-eabi/lib/thumb2\libc.a(lib_a-reallocr.o)
                                                  c:/program files (x86)/codesourcery/sourcery g++ lite/bin/../lib/gcc/arm-none-eabi/4.4.1/../../../../arm-none-eabi/lib/thumb2\libc.a(lib_a-mallocr.o)
                                                  c:/program files (x86)/codesourcery/sourcery g++ lite/bin/../lib/gcc/arm-none-eabi/4.4.1/../../../../arm-none-eabi/lib/thumb2\libc.a(lib_a-freer.o)
__mb_cur_max                                      c:/program files (x86)/codesourcery/sourcery g++ lite/bin/../lib/gcc/arm-none-eabi/4.4.1/../../../../arm-none-eabi/lib/thumb2\libc.a(lib_a-locale.o)
__mcmp                                            c:/program files (x86)/codesourcery/sourcery g++ lite/bin/../lib/gcc/arm-none-eabi/4.4.1/../../../../arm-none-eabi/lib/thumb2\libc.a(lib_a-mprec.o)
                                                  c:/program files (x86)/codesourcery/sourcery g++ lite/bin/../lib/gcc/arm-none-eabi/4.4.1/../../../../arm-none-eabi/lib/thumb2\libc.a(lib_a-dtoa.o)
__mdiff                                           c:/program files (x86)/codesourcery/sourcery g++ lite/bin/../lib/gcc/arm-none-eabi/4.4.1/../../../../arm-none-eabi/lib/thumb2\libc.a(lib_a-mprec.o)
                                                  c:/program files (x86)/codesourcery/sourcery g++ lite/bin/../lib/gcc/arm-none-eabi/4.4.1/../../../../arm-none-eabi/lib/thumb2\libc.a(lib_a-dtoa.o)
__mlocale_changed                                 c:/program files (x86)/codesourcery/sourcery g++ lite/bin/../lib/gcc/arm-none-eabi/4.4.1/../../../../arm-none-eabi/lib/thumb2\libc.a(lib_a-locale.o)
__mprec_bigtens                                   c:/program files (x86)/codesourcery/sourcery g++ lite/bin/../lib/gcc/arm-none-eabi/4.4.1/../../../../arm-none-eabi/lib/thumb2\libc.a(lib_a-mprec.o)
                                                  c:/program files (x86)/codesourcery/sourcery g++ lite/bin/../lib/gcc/arm-none-eabi/4.4.1/../../../../arm-none-eabi/lib/thumb2\libc.a(lib_a-dtoa.o)
__mprec_tens                                      c:/program files (x86)/codesourcery/sourcery g++ lite/bin/../lib/gcc/arm-none-eabi/4.4.1/../../../../arm-none-eabi/lib/thumb2\libc.a(lib_a-mprec.o)
                                                  c:/program files (x86)/codesourcery/sourcery g++ lite/bin/../lib/gcc/arm-none-eabi/4.4.1/../../../../arm-none-eabi/lib/thumb2\libc.a(lib_a-dtoa.o)
__mprec_tinytens                                  c:/program files (x86)/codesourcery/sourcery g++ lite/bin/../lib/gcc/arm-none-eabi/4.4.1/../../../../arm-none-eabi/lib/thumb2\libc.a(lib_a-mprec.o)
__muldf3                                          c:/program files (x86)/codesourcery/sourcery g++ lite/bin/../lib/gcc/arm-none-eabi/4.4.1/thumb2\libgcc.a(_arm_muldivdf3.o)
__multadd                                         c:/program files (x86)/codesourcery/sourcery g++ lite/bin/../lib/gcc/arm-none-eabi/4.4.1/../../../../arm-none-eabi/lib/thumb2\libc.a(lib_a-mprec.o)
                                                  c:/program files (x86)/codesourcery/sourcery g++ lite/bin/../lib/gcc/arm-none-eabi/4.4.1/../../../../arm-none-eabi/lib/thumb2\libc.a(lib_a-dtoa.o)
__multiply                                        c:/program files (x86)/codesourcery/sourcery g++ lite/bin/../lib/gcc/arm-none-eabi/4.4.1/../../../../arm-none-eabi/lib/thumb2\libc.a(lib_a-mprec.o)
                                                  c:/program files (x86)/codesourcery/sourcery g++ lite/bin/../lib/gcc/arm-none-eabi/4.4.1/../../../../arm-none-eabi/lib/thumb2\libc.a(lib_a-dtoa.o)
__nedf2                                           c:/program files (x86)/codesourcery/sourcery g++ lite/bin/../lib/gcc/arm-none-eabi/4.4.1/thumb2\libgcc.a(_arm_cmpdf2.o)
__nlocale_changed                                 c:/program files (x86)/codesourcery/sourcery g++ lite/bin/../lib/gcc/arm-none-eabi/4.4.1/../../../../arm-none-eabi/lib/thumb2\libc.a(lib_a-locale.o)
__pow5mult                                        c:/program files (x86)/codesourcery/sourcery g++ lite/bin/../lib/gcc/arm-none-eabi/4.4.1/../../../../arm-none-eabi/lib/thumb2\libc.a(lib_a-mprec.o)
                                                  c:/program files (x86)/codesourcery/sourcery g++ lite/bin/../lib/gcc/arm-none-eabi/4.4.1/../../../../arm-none-eabi/lib/thumb2\libc.a(lib_a-dtoa.o)
__preinit_array_end                               c:/program files (x86)/codesourcery/sourcery g++ lite/bin/../lib/gcc/arm-none-eabi/4.4.1/../../../../arm-none-eabi/lib/thumb2\libc.a(lib_a-init.o)
__preinit_array_start                             c:/program files (x86)/codesourcery/sourcery g++ lite/bin/../lib/gcc/arm-none-eabi/4.4.1/../../../../arm-none-eabi/lib/thumb2\libc.a(lib_a-init.o)
__ratio                                           c:/program files (x86)/codesourcery/sourcery g++ lite/bin/../lib/gcc/arm-none-eabi/4.4.1/../../../../arm-none-eabi/lib/thumb2\libc.a(lib_a-mprec.o)
__s2b                                             c:/program files (x86)/codesourcery/sourcery g++ lite/bin/../lib/gcc/arm-none-eabi/4.4.1/../../../../arm-none-eabi/lib/thumb2\libc.a(lib_a-mprec.o)
__sf_fake_stderr                                  c:/program files (x86)/codesourcery/sourcery g++ lite/bin/../lib/gcc/arm-none-eabi/4.4.1/../../../../arm-none-eabi/lib/thumb2\libc.a(lib_a-impure.o)
__sf_fake_stdin                                   c:/program files (x86)/codesourcery/sourcery g++ lite/bin/../lib/gcc/arm-none-eabi/4.4.1/../../../../arm-none-eabi/lib/thumb2\libc.a(lib_a-impure.o)
__sf_fake_stdout                                  c:/program files (x86)/codesourcery/sourcery g++ lite/bin/../lib/gcc/arm-none-eabi/4.4.1/../../../../arm-none-eabi/lib/thumb2\libc.a(lib_a-impure.o)
__subdf3                                          c:/program files (x86)/codesourcery/sourcery g++ lite/bin/../lib/gcc/arm-none-eabi/4.4.1/thumb2\libgcc.a(_arm_addsubdf3.o)
__subsf3                                          c:/program files (x86)/codesourcery/sourcery g++ lite/bin/../lib/gcc/arm-none-eabi/4.4.1/thumb2\libgcc.a(_arm_addsubsf3.o)
__udivdi3                                         c:/program files (x86)/codesourcery/sourcery g++ lite/bin/../lib/gcc/arm-none-eabi/4.4.1/thumb2\libgcc.a(_udivdi3.o)
                                                  c:/program files (x86)/codesourcery/sourcery g++ lite/bin/../lib/gcc/arm-none-eabi/4.4.1/thumb2\libgcc.a(bpabi.o)
__udivsi3                                         c:/program files (x86)/codesourcery/sourcery g++ lite/bin/../lib/gcc/arm-none-eabi/4.4.1/thumb2\libgcc.a(_udivsi3.o)
__ulp                                             c:/program files (x86)/codesourcery/sourcery g++ lite/bin/../lib/gcc/arm-none-eabi/4.4.1/../../../../arm-none-eabi/lib/thumb2\libc.a(lib_a-mprec.o)
_calloc_r                                         c:/program files (x86)/codesourcery/sourcery g++ lite/bin/../lib/gcc/arm-none-eabi/4.4.1/../../../../arm-none-eabi/lib/thumb2\libc.a(lib_a-callocr.o)
                                                  c:/program files (x86)/codesourcery/sourcery g++ lite/bin/../lib/gcc/arm-none-eabi/4.4.1/../../../../arm-none-eabi/lib/thumb2\libc.a(lib_a-mprec.o)
_close                                            Utils\syscalls-stubs.o
_dtoa_r                                           c:/program files (x86)/codesourcery/sourcery g++ lite/bin/../lib/gcc/arm-none-eabi/4.4.1/../../../../arm-none-eabi/lib/thumb2\libc.a(lib_a-dtoa.o)
                                                  c:/program files (x86)/codesourcery/sourcery g++ lite/bin/../lib/gcc/arm-none-eabi/4.4.1/../../../../arm-none-eabi/lib/thumb2\libc.a(lib_a-svfprintf.o)
_ebss                                             Utils\syscalls-stubs.o
                                                  startup\startup_stm32f4xx.o
_edata                                            startup\startup_stm32f4xx.o
_estack                                           startup\startup_stm32f4xx.o
_fini                                             c:/program files (x86)/codesourcery/sourcery g++ lite/bin/../lib/gcc/arm-none-eabi/4.4.1/thumb2/crti.o
_free_r                                           c:/program files (x86)/codesourcery/sourcery g++ lite/bin/../lib/gcc/arm-none-eabi/4.4.1/../../../../arm-none-eabi/lib/thumb2\libc.a(lib_a-freer.o)
                                                  c:/program files (x86)/codesourcery/sourcery g++ lite/bin/../lib/gcc/arm-none-eabi/4.4.1/../../../../arm-none-eabi/lib/thumb2\libc.a(lib_a-reent.o)
                                                  c:/program files (x86)/codesourcery/sourcery g++ lite/bin/../lib/gcc/arm-none-eabi/4.4.1/../../../../arm-none-eabi/lib/thumb2\libc.a(lib_a-reallocr.o)
                                                  c:/program files (x86)/codesourcery/sourcery g++ lite/bin/../lib/gcc/arm-none-eabi/4.4.1/../../../../arm-none-eabi/lib/thumb2\libc.a(lib_a-mallocr.o)
                                                  c:/program files (x86)/codesourcery/sourcery g++ lite/bin/../lib/gcc/arm-none-eabi/4.4.1/../../../../arm-none-eabi/lib/thumb2\libc.a(lib_a-malloc.o)
                                                  c:/program files (x86)/codesourcery/sourcery g++ lite/bin/../lib/gcc/arm-none-eabi/4.4.1/../../../../arm-none-eabi/lib/thumb2\libc.a(lib_a-svfprintf.o)
_fstat                                            Utils\syscalls-stubs.o
_global_impure_ptr                                c:/program files (x86)/codesourcery/sourcery g++ lite/bin/../lib/gcc/arm-none-eabi/4.4.1/../../../../arm-none-eabi/lib/thumb2\libc.a(lib_a-impure.o)
_impure_ptr                                       c:/program files (x86)/codesourcery/sourcery g++ lite/bin/../lib/gcc/arm-none-eabi/4.4.1/../../../../arm-none-eabi/lib/thumb2\libc.a(lib_a-impure.o)
                                                  c:/program files (x86)/codesourcery/sourcery g++ lite/bin/../lib/gcc/arm-none-eabi/4.4.1/../../../../arm-none-eabi/lib/thumb2\libc.a(lib_a-reent.o)
                                                  c:/program files (x86)/codesourcery/sourcery g++ lite/bin/../lib/gcc/arm-none-eabi/4.4.1/../../../../arm-none-eabi/lib/thumb2\libc.a(lib_a-malloc.o)
                                                  c:/program files (x86)/codesourcery/sourcery g++ lite/bin/../lib/gcc/arm-none-eabi/4.4.1/../../../../arm-none-eabi/lib/thumb2\libc.a(lib_a-locale.o)
                                                  c:/program files (x86)/codesourcery/sourcery g++ lite/bin/../lib/gcc/arm-none-eabi/4.4.1/../../../../arm-none-eabi/lib/thumb2\libc.a(lib_a-sprintf.o)
                                                  c:/program files (x86)/codesourcery/sourcery g++ lite/bin/../lib/gcc/arm-none-eabi/4.4.1/../../../../arm-none-eabi/lib/thumb2\libc.a(lib_a-errno.o)
_init                                             c:/program files (x86)/codesourcery/sourcery g++ lite/bin/../lib/gcc/arm-none-eabi/4.4.1/thumb2/crti.o
                                                  c:/program files (x86)/codesourcery/sourcery g++ lite/bin/../lib/gcc/arm-none-eabi/4.4.1/../../../../arm-none-eabi/lib/thumb2\libc.a(lib_a-init.o)
_isatty                                           Utils\syscalls-stubs.o
_link                                             Utils\syscalls-stubs.o
_localeconv_r                                     c:/program files (x86)/codesourcery/sourcery g++ lite/bin/../lib/gcc/arm-none-eabi/4.4.1/../../../../arm-none-eabi/lib/thumb2\libc.a(lib_a-locale.o)
                                                  c:/program files (x86)/codesourcery/sourcery g++ lite/bin/../lib/gcc/arm-none-eabi/4.4.1/../../../../arm-none-eabi/lib/thumb2\libc.a(lib_a-svfprintf.o)
_lseek                                            Utils\syscalls-stubs.o
_malloc_r                                         c:/program files (x86)/codesourcery/sourcery g++ lite/bin/../lib/gcc/arm-none-eabi/4.4.1/../../../../arm-none-eabi/lib/thumb2\libc.a(lib_a-mallocr.o)
                                                  c:/program files (x86)/codesourcery/sourcery g++ lite/bin/../lib/gcc/arm-none-eabi/4.4.1/../../../../arm-none-eabi/lib/thumb2\libc.a(lib_a-callocr.o)
                                                  c:/program files (x86)/codesourcery/sourcery g++ lite/bin/../lib/gcc/arm-none-eabi/4.4.1/../../../../arm-none-eabi/lib/thumb2\libc.a(lib_a-reallocr.o)
                                                  c:/program files (x86)/codesourcery/sourcery g++ lite/bin/../lib/gcc/arm-none-eabi/4.4.1/../../../../arm-none-eabi/lib/thumb2\libc.a(lib_a-malloc.o)
                                                  c:/program files (x86)/codesourcery/sourcery g++ lite/bin/../lib/gcc/arm-none-eabi/4.4.1/../../../../arm-none-eabi/lib/thumb2\libc.a(lib_a-svfprintf.o)
_malloc_trim_r                                    c:/program files (x86)/codesourcery/sourcery g++ lite/bin/../lib/gcc/arm-none-eabi/4.4.1/../../../../arm-none-eabi/lib/thumb2\libc.a(lib_a-freer.o)
_mprec_log10                                      c:/program files (x86)/codesourcery/sourcery g++ lite/bin/../lib/gcc/arm-none-eabi/4.4.1/../../../../arm-none-eabi/lib/thumb2\libc.a(lib_a-mprec.o)
_open                                             Utils\syscalls-stubs.o
_read                                             Utils\syscalls-stubs.o
_realloc_r                                        c:/program files (x86)/codesourcery/sourcery g++ lite/bin/../lib/gcc/arm-none-eabi/4.4.1/../../../../arm-none-eabi/lib/thumb2\libc.a(lib_a-reallocr.o)
                                                  c:/program files (x86)/codesourcery/sourcery g++ lite/bin/../lib/gcc/arm-none-eabi/4.4.1/../../../../arm-none-eabi/lib/thumb2\libc.a(lib_a-svfprintf.o)
_reclaim_reent                                    c:/program files (x86)/codesourcery/sourcery g++ lite/bin/../lib/gcc/arm-none-eabi/4.4.1/../../../../arm-none-eabi/lib/thumb2\libc.a(lib_a-reent.o)
_sbrk                                             Utils\syscalls-stubs.o
                                                  c:/program files (x86)/codesourcery/sourcery g++ lite/bin/../lib/gcc/arm-none-eabi/4.4.1/../../../../arm-none-eabi/lib/thumb2\libc.a(lib_a-sbrkr.o)
_sbrk_r                                           c:/program files (x86)/codesourcery/sourcery g++ lite/bin/../lib/gcc/arm-none-eabi/4.4.1/../../../../arm-none-eabi/lib/thumb2\libc.a(lib_a-sbrkr.o)
                                                  c:/program files (x86)/codesourcery/sourcery g++ lite/bin/../lib/gcc/arm-none-eabi/4.4.1/../../../../arm-none-eabi/lib/thumb2\libc.a(lib_a-mallocr.o)
                                                  c:/program files (x86)/codesourcery/sourcery g++ lite/bin/../lib/gcc/arm-none-eabi/4.4.1/../../../../arm-none-eabi/lib/thumb2\libc.a(lib_a-freer.o)
_sbss                                             startup\startup_stm32f4xx.o
_sdata                                            startup\startup_stm32f4xx.o
_setlocale_r                                      c:/program files (x86)/codesourcery/sourcery g++ lite/bin/../lib/gcc/arm-none-eabi/4.4.1/../../../../arm-none-eabi/lib/thumb2\libc.a(lib_a-locale.o)
_sidata                                           startup\startup_stm32f4xx.o
_sprintf_r                                        c:/program files (x86)/codesourcery/sourcery g++ lite/bin/../lib/gcc/arm-none-eabi/4.4.1/../../../../arm-none-eabi/lib/thumb2\libc.a(lib_a-sprintf.o)
_svfprintf_r                                      c:/program files (x86)/codesourcery/sourcery g++ lite/bin/../lib/gcc/arm-none-eabi/4.4.1/../../../../arm-none-eabi/lib/thumb2\libc.a(lib_a-svfprintf.o)
                                                  c:/program files (x86)/codesourcery/sourcery g++ lite/bin/../lib/gcc/arm-none-eabi/4.4.1/../../../../arm-none-eabi/lib/thumb2\libc.a(lib_a-sprintf.o)
_unlink                                           Utils\syscalls-stubs.o
_wrapup_reent                                     c:/program files (x86)/codesourcery/sourcery g++ lite/bin/../lib/gcc/arm-none-eabi/4.4.1/../../../../arm-none-eabi/lib/thumb2\libc.a(lib_a-reent.o)
_write                                            Utils\syscalls-stubs.o
a                                                 User\main.o
ab                                                User\main.o
asciisize                                         User\main.o
b                                                 User\main.o
backToHome                                        User\main.o
cInt2Temp                                         User\main.o
cleanup_glue                                      c:/program files (x86)/codesourcery/sourcery g++ lite/bin/../lib/gcc/arm-none-eabi/4.4.1/../../../../arm-none-eabi/lib/thumb2\libc.a(lib_a-reent.o)
delay_ms                                          User\main.o
display                                           User\main.o
eTaskStateGet                                     FreeRTOS\tasks.o
errno                                             c:/program files (x86)/codesourcery/sourcery g++ lite/bin/../lib/gcc/arm-none-eabi/4.4.1/../../../../arm-none-eabi/lib/thumb2\libc.a(lib_a-reent.o)
                                                  c:/program files (x86)/codesourcery/sourcery g++ lite/bin/../lib/gcc/arm-none-eabi/4.4.1/../../../../arm-none-eabi/lib/thumb2\libc.a(lib_a-sbrkr.o)
fSystemTask                                       User\main.o
faAtticRelay                                      User\main.o
faBathroomRelay                                   User\main.o
faBoilerRelay                                     User\main.o
faFloorRelay                                      User\main.o
faFurnaceRelay                                    User\main.o
faGroundRelay                                     User\main.o
faHeatRelay                                       User\main.o
faResetRelay                                      User\main.o
faSensorAlive                                     User\main.o
faSystemConditions                                User\main.o
fputc                                             Utils\retarget.o
                                                  Utils\syscalls-stubs.o
free                                              c:/program files (x86)/codesourcery/sourcery g++ lite/bin/../lib/gcc/arm-none-eabi/4.4.1/../../../../arm-none-eabi/lib/thumb2\libc.a(lib_a-malloc.o)
g_pfnVectors                                      startup\startup_stm32f4xx.o
getDisplayPoint                                   User\main.o
halfsec_elapsed                                   User\main.o
iAllReset                                         User\main.o
iAllSet                                           User\main.o
iBinaryToIntTemperature                           User\main.o
iButton                                           User\main.o
iCmpG                                             User\main.o
iCmpL                                             User\main.o
iNotAllReset                                      User\main.o
iNotAllSet                                        User\main.o
iOneReset                                         User\main.o
iRomAddress                                       User\main.o
iTemperature                                      User\main.o
itoa                                              Utils\itoa.o
                                                  User\main.o
localeconv                                        c:/program files (x86)/codesourcery/sourcery g++ lite/bin/../lib/gcc/arm-none-eabi/4.4.1/../../../../arm-none-eabi/lib/thumb2\libc.a(lib_a-locale.o)
main                                              User\main.o
                                                  startup\startup_stm32f4xx.o
malloc                                            c:/program files (x86)/codesourcery/sourcery g++ lite/bin/../lib/gcc/arm-none-eabi/4.4.1/../../../../arm-none-eabi/lib/thumb2\libc.a(lib_a-malloc.o)
                                                  c:/program files (x86)/codesourcery/sourcery g++ lite/bin/../lib/gcc/arm-none-eabi/4.4.1/../../../../arm-none-eabi/lib/thumb2\libc.a(lib_a-mprec.o)
                                                  c:/program files (x86)/codesourcery/sourcery g++ lite/bin/../lib/gcc/arm-none-eabi/4.4.1/../../../../arm-none-eabi/lib/thumb2\libc.a(lib_a-dtoa.o)
matrix                                            User\main.o
memchr                                            c:/program files (x86)/codesourcery/sourcery g++ lite/bin/../lib/gcc/arm-none-eabi/4.4.1/../../../../arm-none-eabi/lib/thumb2\libc.a(lib_a-memchr.o)
                                                  c:/program files (x86)/codesourcery/sourcery g++ lite/bin/../lib/gcc/arm-none-eabi/4.4.1/../../../../arm-none-eabi/lib/thumb2\libc.a(lib_a-svfprintf.o)
memcmp                                            c:/program files (x86)/codesourcery/sourcery g++ lite/bin/../lib/gcc/arm-none-eabi/4.4.1/../../../../arm-none-eabi/lib/thumb2\libc.a(lib_a-memcmp.o)
                                                  FreeRTOS\tasks.o
memcpy                                            c:/program files (x86)/codesourcery/sourcery g++ lite/bin/../lib/gcc/arm-none-eabi/4.4.1/../../../../arm-none-eabi/lib/thumb2\libc.a(lib_a-memcpy.o)
                                                  c:/program files (x86)/codesourcery/sourcery g++ lite/bin/../lib/gcc/arm-none-eabi/4.4.1/../../../../arm-none-eabi/lib/thumb2\libc.a(lib_a-mprec.o)
                                                  c:/program files (x86)/codesourcery/sourcery g++ lite/bin/../lib/gcc/arm-none-eabi/4.4.1/../../../../arm-none-eabi/lib/thumb2\libc.a(lib_a-dtoa.o)
                                                  c:/program files (x86)/codesourcery/sourcery g++ lite/bin/../lib/gcc/arm-none-eabi/4.4.1/../../../../arm-none-eabi/lib/thumb2\libc.a(lib_a-svfprintf.o)
                                                  FreeRTOS\queue.o
                                                  User\main.o
memmove                                           c:/program files (x86)/codesourcery/sourcery g++ lite/bin/../lib/gcc/arm-none-eabi/4.4.1/../../../../arm-none-eabi/lib/thumb2\libc.a(lib_a-memmove.o)
                                                  c:/program files (x86)/codesourcery/sourcery g++ lite/bin/../lib/gcc/arm-none-eabi/4.4.1/../../../../arm-none-eabi/lib/thumb2\libc.a(lib_a-reallocr.o)
                                                  c:/program files (x86)/codesourcery/sourcery g++ lite/bin/../lib/gcc/arm-none-eabi/4.4.1/../../../../arm-none-eabi/lib/thumb2\libc.a(lib_a-svfprintf.o)
memset                                            c:/program files (x86)/codesourcery/sourcery g++ lite/bin/../lib/gcc/arm-none-eabi/4.4.1/../../../../arm-none-eabi/lib/thumb2\libc.a(lib_a-memset.o)
                                                  c:/program files (x86)/codesourcery/sourcery g++ lite/bin/../lib/gcc/arm-none-eabi/4.4.1/../../../../arm-none-eabi/lib/thumb2\libc.a(lib_a-callocr.o)
                                                  FreeRTOS\tasks.o
                                                  User\main.o
msg_CANCEL                                        User\main.o
msg_INFO                                          User\main.o
msg_INFO_TITLE                                    User\main.o
msg_MINUTE                                        User\main.o
msg_OK                                            User\main.o
msg_SetTime                                       User\main.o
msg_URA                                           User\main.o
msg_VERSION                                       User\main.o
msg_YEAR                                          User\main.o
nCRReceived                                       RFID\rfid.o
nDataCount                                        RFID\rfid.o
nLFReceived                                       RFID\rfid.o
nStartReadRFIDTransponder                         RFID\rfid.o
pFsRelays                                         User\main.o
pStatusRelays                                     User\main.o
pTime_data                                        User\main.o
piRelays                                          User\main.o
pic_a_png                                         User\main.o
pic_arrL3_png                                     User\main.o
pic_arrow_down_60x60_jpg                          User\main.o
pic_arrow_up_60x60_jpg                            User\main.o
pic_auto_png                                      User\main.o
pic_cancel_60x60_jpg                              User\main.o
pic_clock3_60x60_jpg                              User\main.o
pic_clock3_png                                    User\main.o
pic_facebook_60x60_jpg                            User\main.o
pic_hiska240x180_jpg                              User\main.o
pic_i_png                                         User\main.o
pic_info1_60x60_jpg                               User\main.o
pic_jalovec240x180_jpg                            User\main.o
pic_off_png                                       User\main.o
pic_ok_60x60_jpg                                  User\main.o
pic_on_png                                        User\main.o
pic_return_60x60_jpg                              User\main.o
pic_sett3_png                                     User\main.o
pic_sett4_60x60_jpg                               User\main.o
pic_switch3_png                                   User\main.o
process_transponder                               RFID\rfid.o
pvPortMalloc                                      FreeRTOS\portable\heap_2.o
                                                  FreeRTOS\croutine.o
                                                  FreeRTOS\queue.o
                                                  FreeRTOS\tasks.o
                                                  FreeRTOS\timers.o
pvTimerGetTimerID                                 FreeRTOS\timers.o
pxCurrentCoRoutine                                FreeRTOS\croutine.o
pxCurrentTCB                                      FreeRTOS\tasks.o
                                                  FreeRTOS\portable\port.o
pxPortInitialiseStack                             FreeRTOS\portable\port.o
                                                  FreeRTOS\tasks.o
reverse                                           Utils\itoa.o
sec_elapsed                                       User\main.o
selectedRelay                                     User\main.o
setCalibrationMatrix                              User\main.o
setlocale                                         c:/program files (x86)/codesourcery/sourcery g++ lite/bin/../lib/gcc/arm-none-eabi/4.4.1/../../../../arm-none-eabi/lib/thumb2\libc.a(lib_a-locale.o)
sprintf                                           c:/program files (x86)/codesourcery/sourcery g++ lite/bin/../lib/gcc/arm-none-eabi/4.4.1/../../../../arm-none-eabi/lib/thumb2\libc.a(lib_a-sprintf.o)
                                                  FreeRTOS\tasks.o
                                                  User\main.o
strcat                                            c:/program files (x86)/codesourcery/sourcery g++ lite/bin/../lib/gcc/arm-none-eabi/4.4.1/../../../../arm-none-eabi/lib/thumb2\libc.a(lib_a-strcat.o)
                                                  FreeRTOS\tasks.o
strcmp                                            c:/program files (x86)/codesourcery/sourcery g++ lite/bin/../lib/gcc/arm-none-eabi/4.4.1/../../../../arm-none-eabi/lib/thumb2\libc.a(lib_a-strcmp.o)
                                                  c:/program files (x86)/codesourcery/sourcery g++ lite/bin/../lib/gcc/arm-none-eabi/4.4.1/../../../../arm-none-eabi/lib/thumb2\libc.a(lib_a-locale.o)
strcpy                                            c:/program files (x86)/codesourcery/sourcery g++ lite/bin/../lib/gcc/arm-none-eabi/4.4.1/../../../../arm-none-eabi/lib/thumb2\libc.a(lib_a-strcpy.o)
                                                  c:/program files (x86)/codesourcery/sourcery g++ lite/bin/../lib/gcc/arm-none-eabi/4.4.1/../../../../arm-none-eabi/lib/thumb2\libc.a(lib_a-strcat.o)
                                                  User\main.o
strlen                                            c:/program files (x86)/codesourcery/sourcery g++ lite/bin/../lib/gcc/arm-none-eabi/4.4.1/../../../../arm-none-eabi/lib/thumb2\libc.a(lib_a-strlen.o)
                                                  c:/program files (x86)/codesourcery/sourcery g++ lite/bin/../lib/gcc/arm-none-eabi/4.4.1/../../../../arm-none-eabi/lib/thumb2\libc.a(lib_a-svfprintf.o)
                                                  Utils\itoa.o
strncpy                                           c:/program files (x86)/codesourcery/sourcery g++ lite/bin/../lib/gcc/arm-none-eabi/4.4.1/../../../../arm-none-eabi/lib/thumb2\libc.a(lib_a-strncpy.o)
                                                  FreeRTOS\tasks.o
switchTimeFormat                                  User\main.o
time                                              User\main.o
time_temp                                         User\main.o
ucQueueGetQueueNumber                             FreeRTOS\queue.o
ucQueueGetQueueType                               FreeRTOS\queue.o
ulKernelPriority                                  FreeRTOS\portable\port.o
ulPortSetInterruptMask                            FreeRTOS\portable\port.o
                                                  FreeRTOS\croutine.o
                                                  FreeRTOS\queue.o
                                                  FreeRTOS\tasks.o
                                                  FreeRTOS\timers.o
                                                  User\main.o
userID                                            RFID\rfid.o
uxListRemove                                      FreeRTOS\list.o
                                                  FreeRTOS\croutine.o
                                                  FreeRTOS\tasks.o
                                                  FreeRTOS\timers.o
uxQueueMessagesWaiting                            FreeRTOS\queue.o
                                                  User\main.o
uxQueueMessagesWaitingFromISR                     FreeRTOS\queue.o
uxTaskGetNumberOfTasks                            FreeRTOS\tasks.o
uxTaskGetTaskNumber                               FreeRTOS\tasks.o
uxTaskPriorityGet                                 FreeRTOS\tasks.o
vApplicationMallocFailedHook                      User\main.o
                                                  FreeRTOS\portable\heap_2.o
vApplicationStackOverflowHook                     User\main.o
                                                  FreeRTOS\tasks.o
vApplicationTickHook                              User\main.o
                                                  FreeRTOS\tasks.o
vBoilerConditions                                 User\main.o
vCoRoutineAddToDelayedList                        FreeRTOS\croutine.o
vCoRoutineSchedule                                FreeRTOS\croutine.o
vConditionTask                                    User\main.o
vFurnaceConditions                                User\main.o
vGroundConditions                                 User\main.o
vHeaterConditions                                 User\main.o
vInit                                             User\main.o
vInitGPIO                                         User\main.o
vInitIcons                                        User\main.o
vListInitialise                                   FreeRTOS\list.o
                                                  FreeRTOS\croutine.o
                                                  FreeRTOS\queue.o
                                                  FreeRTOS\tasks.o
                                                  FreeRTOS\timers.o
vListInitialiseItem                               FreeRTOS\list.o
                                                  FreeRTOS\croutine.o
                                                  FreeRTOS\tasks.o
                                                  FreeRTOS\timers.o
vListInsert                                       FreeRTOS\list.o
                                                  FreeRTOS\croutine.o
                                                  FreeRTOS\tasks.o
                                                  FreeRTOS\timers.o
vListInsertEnd                                    FreeRTOS\list.o
                                                  FreeRTOS\croutine.o
                                                  FreeRTOS\tasks.o
vPortClearInterruptMask                           FreeRTOS\portable\port.o
                                                  FreeRTOS\croutine.o
                                                  FreeRTOS\queue.o
                                                  FreeRTOS\tasks.o
vPortEndScheduler                                 FreeRTOS\portable\port.o
                                                  FreeRTOS\tasks.o
vPortEnterCritical                                FreeRTOS\portable\port.o
                                                  FreeRTOS\queue.o
                                                  FreeRTOS\tasks.o
                                                  FreeRTOS\timers.o
vPortExitCritical                                 FreeRTOS\portable\port.o
                                                  FreeRTOS\queue.o
                                                  FreeRTOS\tasks.o
                                                  FreeRTOS\timers.o
vPortFree                                         FreeRTOS\portable\heap_2.o
                                                  FreeRTOS\queue.o
                                                  FreeRTOS\tasks.o
                                                  FreeRTOS\timers.o
vPortInitialiseBlocks                             FreeRTOS\portable\heap_2.o
vPortSetupTimerInterrupt                          FreeRTOS\portable\port.o
vPortYieldFromISR                                 FreeRTOS\portable\port.o
                                                  FreeRTOS\queue.o
                                                  FreeRTOS\tasks.o
                                                  FreeRTOS\timers.o
                                                  RFID\rfid.o
vQueueAddToRegistry                               FreeRTOS\queue.o
vQueueDelete                                      FreeRTOS\queue.o
vQueueSetQueueNumber                              FreeRTOS\queue.o
vQueueWaitForMessageRestricted                    FreeRTOS\queue.o
                                                  FreeRTOS\timers.o
vRFIDTransponderTask                              RFID\rfid.o
vReadTempTask                                     I2C-DS1621\I2C-DS1621.o
vRefreshTask                                      User\main.o
vResetArray                                       User\main.o
vSystemConditions                                 User\main.o
vSystemTask                                       User\main.o
vTaskDelay                                        FreeRTOS\tasks.o
                                                  I2C-DS1621\I2C-DS1621.o
                                                  RFID\rfid.o
                                                  User\main.o
vTaskDelayUntil                                   FreeRTOS\tasks.o
                                                  User\main.o
vTaskDelete                                       FreeRTOS\tasks.o
                                                  User\main.o
vTaskEndScheduler                                 FreeRTOS\tasks.o
vTaskIncrementTick                                FreeRTOS\tasks.o
                                                  FreeRTOS\portable\port.o
vTaskList                                         FreeRTOS\tasks.o
vTaskMissedYield                                  FreeRTOS\tasks.o
                                                  FreeRTOS\queue.o
vTaskPlaceOnEventList                             FreeRTOS\tasks.o
                                                  FreeRTOS\queue.o
vTaskPlaceOnEventListRestricted                   FreeRTOS\tasks.o
                                                  FreeRTOS\queue.o
vTaskPriorityDisinherit                           FreeRTOS\tasks.o
                                                  FreeRTOS\queue.o
vTaskPriorityInherit                              FreeRTOS\tasks.o
                                                  FreeRTOS\queue.o
vTaskPrioritySet                                  FreeRTOS\tasks.o
vTaskResume                                       FreeRTOS\tasks.o
                                                  RFID\rfid.o
                                                  User\main.o
vTaskSetTaskNumber                                FreeRTOS\tasks.o
vTaskSetTimeOutState                              FreeRTOS\tasks.o
                                                  FreeRTOS\queue.o
vTaskStartScheduler                               FreeRTOS\tasks.o
                                                  User\main.o
vTaskSuspend                                      FreeRTOS\tasks.o
                                                  RFID\rfid.o
                                                  User\main.o
vTaskSuspendAll                                   FreeRTOS\tasks.o
                                                  FreeRTOS\portable\heap_2.o
                                                  FreeRTOS\queue.o
                                                  FreeRTOS\timers.o
vTaskSwitchContext                                FreeRTOS\tasks.o
                                                  FreeRTOS\portable\port.o
vTemperatureTask                                  User\main.o
vThermostatConditions                             User\main.o
vTimerFunction                                    User\main.o
vToggleLED4Task                                   RFID\rfid.o
vTouchPanelTask                                   User\main.o
vTurnOffRelay                                     User\main.o
vTurnOnRelay                                      User\main.o
xCoRoutineCreate                                  FreeRTOS\croutine.o
xCoRoutineRemoveFromEventList                     FreeRTOS\croutine.o
xDrawSetTimeScreen                                User\main.o
xLCDQueue                                         I2C-DS1621\I2C-DS1621.o
                                                  RFID\rfid.o
                                                  User\main.o
xLCDScreenState                                   User\main.o
xPortGetFreeHeapSize                              FreeRTOS\portable\heap_2.o
xPortStartScheduler                               FreeRTOS\portable\port.o
                                                  FreeRTOS\tasks.o
xQueueCreateCountingSemaphore                     FreeRTOS\queue.o
xQueueCreateMutex                                 FreeRTOS\queue.o
xQueueGenericCreate                               FreeRTOS\queue.o
                                                  FreeRTOS\timers.o
                                                  RFID\rfid.o
                                                  User\main.o
xQueueGenericReceive                              FreeRTOS\queue.o
                                                  FreeRTOS\timers.o
                                                  RFID\rfid.o
                                                  User\main.o
xQueueGenericReset                                FreeRTOS\queue.o
xQueueGenericSend                                 FreeRTOS\queue.o
                                                  FreeRTOS\timers.o
                                                  I2C-DS1621\I2C-DS1621.o
                                                  RFID\rfid.o
                                                  User\main.o
xQueueGenericSendFromISR                          FreeRTOS\queue.o
                                                  FreeRTOS\timers.o
                                                  RFID\rfid.o
xQueueGiveMutexRecursive                          FreeRTOS\queue.o
xQueueIsQueueEmptyFromISR                         FreeRTOS\queue.o
xQueueIsQueueFullFromISR                          FreeRTOS\queue.o
xQueueReceiveFromISR                              FreeRTOS\queue.o
xQueueRegistry                                    FreeRTOS\queue.o
xQueueTakeMutexRecursive                          FreeRTOS\queue.o
xRefreshHandle                                    User\main.o
xScreenSaverHandle                                User\main.o
xSystemFunctionHandle                             User\main.o
xTaskCheckForTimeOut                              FreeRTOS\tasks.o
                                                  FreeRTOS\queue.o
xTaskGenericCreate                                FreeRTOS\tasks.o
                                                  FreeRTOS\timers.o
                                                  RFID\rfid.o
                                                  User\main.o
xTaskGetCurrentTaskHandle                         FreeRTOS\tasks.o
                                                  FreeRTOS\queue.o
xTaskGetSchedulerState                            FreeRTOS\tasks.o
                                                  FreeRTOS\timers.o
xTaskGetTickCount                                 FreeRTOS\tasks.o
                                                  FreeRTOS\croutine.o
                                                  FreeRTOS\timers.o
                                                  User\main.o
xTaskGetTickCountFromISR                          FreeRTOS\tasks.o
xTaskIsTaskSuspended                              FreeRTOS\tasks.o
xTaskRemoveFromEventList                          FreeRTOS\tasks.o
                                                  FreeRTOS\queue.o
xTaskResumeAll                                    FreeRTOS\tasks.o
                                                  FreeRTOS\portable\heap_2.o
                                                  FreeRTOS\queue.o
                                                  FreeRTOS\timers.o
xTaskResumeFromISR                                FreeRTOS\tasks.o
xTemperature                                      I2C-DS1621\I2C-DS1621.o
xTimerCreate                                      FreeRTOS\timers.o
xTimerCreateTimerTask                             FreeRTOS\timers.o
                                                  FreeRTOS\tasks.o
xTimerFunctionHandle                              User\main.o
xTimerGenericCommand                              FreeRTOS\timers.o
xTimerIsTimerActive                               FreeRTOS\timers.o
